Archive member included to satisfy reference by file (symbol)

a:/touchgfx/4.18.1/env/mingw/msys/1.0/gnu-arm-gcc/bin/../lib/gcc/arm-none-eabi/7.3.1/../../../../arm-none-eabi/lib/thumb/v7e-m/fpv4-sp/hard\libc.a(lib_a-exit.o)
                              a:/touchgfx/4.18.1/env/mingw/msys/1.0/gnu-arm-gcc/bin/../lib/gcc/arm-none-eabi/7.3.1/../../../../arm-none-eabi/lib/thumb/v7e-m/fpv4-sp/hard/crt0.o (exit)
a:/touchgfx/4.18.1/env/mingw/msys/1.0/gnu-arm-gcc/bin/../lib/gcc/arm-none-eabi/7.3.1/../../../../arm-none-eabi/lib/thumb/v7e-m/fpv4-sp/hard\libc.a(lib_a-impure.o)
                              a:/touchgfx/4.18.1/env/mingw/msys/1.0/gnu-arm-gcc/bin/../lib/gcc/arm-none-eabi/7.3.1/../../../../arm-none-eabi/lib/thumb/v7e-m/fpv4-sp/hard\libc.a(lib_a-exit.o) (_global_impure_ptr)
a:/touchgfx/4.18.1/env/mingw/msys/1.0/gnu-arm-gcc/bin/../lib/gcc/arm-none-eabi/7.3.1/../../../../arm-none-eabi/lib/thumb/v7e-m/fpv4-sp/hard\libc.a(lib_a-init.o)
                              a:/touchgfx/4.18.1/env/mingw/msys/1.0/gnu-arm-gcc/bin/../lib/gcc/arm-none-eabi/7.3.1/../../../../arm-none-eabi/lib/thumb/v7e-m/fpv4-sp/hard/crt0.o (__libc_init_array)
a:/touchgfx/4.18.1/env/mingw/msys/1.0/gnu-arm-gcc/bin/../lib/gcc/arm-none-eabi/7.3.1/../../../../arm-none-eabi/lib/thumb/v7e-m/fpv4-sp/hard\libc.a(lib_a-memset.o)
                              a:/touchgfx/4.18.1/env/mingw/msys/1.0/gnu-arm-gcc/bin/../lib/gcc/arm-none-eabi/7.3.1/../../../../arm-none-eabi/lib/thumb/v7e-m/fpv4-sp/hard/crt0.o (memset)
a:/touchgfx/4.18.1/env/mingw/msys/1.0/gnu-arm-gcc/bin/../lib/gcc/arm-none-eabi/7.3.1/../../../../arm-none-eabi/lib/thumb/v7e-m/fpv4-sp/hard\libc.a(lib_a-__call_atexit.o)
                              a:/touchgfx/4.18.1/env/mingw/msys/1.0/gnu-arm-gcc/bin/../lib/gcc/arm-none-eabi/7.3.1/../../../../arm-none-eabi/lib/thumb/v7e-m/fpv4-sp/hard\libc.a(lib_a-exit.o) (__call_exitprocs)
a:/touchgfx/4.18.1/env/mingw/msys/1.0/gnu-arm-gcc/bin/../lib/gcc/arm-none-eabi/7.3.1/../../../../arm-none-eabi/lib/thumb/v7e-m/fpv4-sp/hard\libc.a(lib_a-atexit.o)
                              a:/touchgfx/4.18.1/env/mingw/msys/1.0/gnu-arm-gcc/bin/../lib/gcc/arm-none-eabi/7.3.1/../../../../arm-none-eabi/lib/thumb/v7e-m/fpv4-sp/hard\libc.a(lib_a-__call_atexit.o) (atexit)
a:/touchgfx/4.18.1/env/mingw/msys/1.0/gnu-arm-gcc/bin/../lib/gcc/arm-none-eabi/7.3.1/../../../../arm-none-eabi/lib/thumb/v7e-m/fpv4-sp/hard\libc.a(lib_a-fini.o)
                              a:/touchgfx/4.18.1/env/mingw/msys/1.0/gnu-arm-gcc/bin/../lib/gcc/arm-none-eabi/7.3.1/../../../../arm-none-eabi/lib/thumb/v7e-m/fpv4-sp/hard\libc.a(lib_a-__call_atexit.o) (__libc_fini_array)
a:/touchgfx/4.18.1/env/mingw/msys/1.0/gnu-arm-gcc/bin/../lib/gcc/arm-none-eabi/7.3.1/../../../../arm-none-eabi/lib/thumb/v7e-m/fpv4-sp/hard\libc.a(lib_a-lock.o)
                              a:/touchgfx/4.18.1/env/mingw/msys/1.0/gnu-arm-gcc/bin/../lib/gcc/arm-none-eabi/7.3.1/../../../../arm-none-eabi/lib/thumb/v7e-m/fpv4-sp/hard\libc.a(lib_a-__call_atexit.o) (__retarget_lock_acquire_recursive)
a:/touchgfx/4.18.1/env/mingw/msys/1.0/gnu-arm-gcc/bin/../lib/gcc/arm-none-eabi/7.3.1/../../../../arm-none-eabi/lib/thumb/v7e-m/fpv4-sp/hard\libc.a(lib_a-__atexit.o)
                              a:/touchgfx/4.18.1/env/mingw/msys/1.0/gnu-arm-gcc/bin/../lib/gcc/arm-none-eabi/7.3.1/../../../../arm-none-eabi/lib/thumb/v7e-m/fpv4-sp/hard\libc.a(lib_a-atexit.o) (__register_exitproc)
a:/touchgfx/4.18.1/env/mingw/msys/1.0/gnu-arm-gcc/bin/../lib/gcc/arm-none-eabi/7.3.1/../../../../arm-none-eabi/lib/thumb/v7e-m/fpv4-sp/hard\libnosys.a(_exit.o)
                              a:/touchgfx/4.18.1/env/mingw/msys/1.0/gnu-arm-gcc/bin/../lib/gcc/arm-none-eabi/7.3.1/../../../../arm-none-eabi/lib/thumb/v7e-m/fpv4-sp/hard\libc.a(lib_a-exit.o) (_exit)

Allocating common symbols
Common symbol       size              file

__lock___atexit_recursive_mutex
                    0x1               a:/touchgfx/4.18.1/env/mingw/msys/1.0/gnu-arm-gcc/bin/../lib/gcc/arm-none-eabi/7.3.1/../../../../arm-none-eabi/lib/thumb/v7e-m/fpv4-sp/hard\libc.a(lib_a-lock.o)
__lock___arc4random_mutex
                    0x1               a:/touchgfx/4.18.1/env/mingw/msys/1.0/gnu-arm-gcc/bin/../lib/gcc/arm-none-eabi/7.3.1/../../../../arm-none-eabi/lib/thumb/v7e-m/fpv4-sp/hard\libc.a(lib_a-lock.o)
uwTick              0x4               CM4/TouchGFX/build/STM32H745I_DISCO/Drivers/STM32H7xx_HAL_Driver/Src/stm32h7xx_hal.o
pFlash              0x1c              CM4/TouchGFX/build/STM32H745I_DISCO/Drivers/STM32H7xx_HAL_Driver/Src/stm32h7xx_hal_flash.o
__lock___env_recursive_mutex
                    0x1               a:/touchgfx/4.18.1/env/mingw/msys/1.0/gnu-arm-gcc/bin/../lib/gcc/arm-none-eabi/7.3.1/../../../../arm-none-eabi/lib/thumb/v7e-m/fpv4-sp/hard\libc.a(lib_a-lock.o)
__lock___sinit_recursive_mutex
                    0x1               a:/touchgfx/4.18.1/env/mingw/msys/1.0/gnu-arm-gcc/bin/../lib/gcc/arm-none-eabi/7.3.1/../../../../arm-none-eabi/lib/thumb/v7e-m/fpv4-sp/hard\libc.a(lib_a-lock.o)
__lock___malloc_recursive_mutex
                    0x1               a:/touchgfx/4.18.1/env/mingw/msys/1.0/gnu-arm-gcc/bin/../lib/gcc/arm-none-eabi/7.3.1/../../../../arm-none-eabi/lib/thumb/v7e-m/fpv4-sp/hard\libc.a(lib_a-lock.o)
__lock___at_quick_exit_mutex
                    0x1               a:/touchgfx/4.18.1/env/mingw/msys/1.0/gnu-arm-gcc/bin/../lib/gcc/arm-none-eabi/7.3.1/../../../../arm-none-eabi/lib/thumb/v7e-m/fpv4-sp/hard\libc.a(lib_a-lock.o)
__lock___dd_hash_mutex
                    0x1               a:/touchgfx/4.18.1/env/mingw/msys/1.0/gnu-arm-gcc/bin/../lib/gcc/arm-none-eabi/7.3.1/../../../../arm-none-eabi/lib/thumb/v7e-m/fpv4-sp/hard\libc.a(lib_a-lock.o)
__lock___tz_mutex   0x1               a:/touchgfx/4.18.1/env/mingw/msys/1.0/gnu-arm-gcc/bin/../lib/gcc/arm-none-eabi/7.3.1/../../../../arm-none-eabi/lib/thumb/v7e-m/fpv4-sp/hard\libc.a(lib_a-lock.o)
__lock___sfp_recursive_mutex
                    0x1               a:/touchgfx/4.18.1/env/mingw/msys/1.0/gnu-arm-gcc/bin/../lib/gcc/arm-none-eabi/7.3.1/../../../../arm-none-eabi/lib/thumb/v7e-m/fpv4-sp/hard\libc.a(lib_a-lock.o)

Discarded input sections

 .text          0x00000000        0x0 a:/touchgfx/4.18.1/env/mingw/msys/1.0/gnu-arm-gcc/bin/../lib/gcc/arm-none-eabi/7.3.1/thumb/v7e-m/fpv4-sp/hard/crti.o
 .data          0x00000000        0x0 a:/touchgfx/4.18.1/env/mingw/msys/1.0/gnu-arm-gcc/bin/../lib/gcc/arm-none-eabi/7.3.1/thumb/v7e-m/fpv4-sp/hard/crti.o
 .bss           0x00000000        0x0 a:/touchgfx/4.18.1/env/mingw/msys/1.0/gnu-arm-gcc/bin/../lib/gcc/arm-none-eabi/7.3.1/thumb/v7e-m/fpv4-sp/hard/crti.o
 .data          0x00000000        0x4 a:/touchgfx/4.18.1/env/mingw/msys/1.0/gnu-arm-gcc/bin/../lib/gcc/arm-none-eabi/7.3.1/thumb/v7e-m/fpv4-sp/hard/crtbegin.o
 .text          0x00000000       0x74 a:/touchgfx/4.18.1/env/mingw/msys/1.0/gnu-arm-gcc/bin/../lib/gcc/arm-none-eabi/7.3.1/../../../../arm-none-eabi/lib/thumb/v7e-m/fpv4-sp/hard/crt0.o
 .data          0x00000000        0x0 a:/touchgfx/4.18.1/env/mingw/msys/1.0/gnu-arm-gcc/bin/../lib/gcc/arm-none-eabi/7.3.1/../../../../arm-none-eabi/lib/thumb/v7e-m/fpv4-sp/hard/crt0.o
 .bss           0x00000000        0x0 a:/touchgfx/4.18.1/env/mingw/msys/1.0/gnu-arm-gcc/bin/../lib/gcc/arm-none-eabi/7.3.1/../../../../arm-none-eabi/lib/thumb/v7e-m/fpv4-sp/hard/crt0.o
 .ARM.extab     0x00000000        0x0 a:/touchgfx/4.18.1/env/mingw/msys/1.0/gnu-arm-gcc/bin/../lib/gcc/arm-none-eabi/7.3.1/../../../../arm-none-eabi/lib/thumb/v7e-m/fpv4-sp/hard/crt0.o
 .ARM.exidx     0x00000000        0x8 a:/touchgfx/4.18.1/env/mingw/msys/1.0/gnu-arm-gcc/bin/../lib/gcc/arm-none-eabi/7.3.1/../../../../arm-none-eabi/lib/thumb/v7e-m/fpv4-sp/hard/crt0.o
 .ARM.attributes
                0x00000000       0x20 a:/touchgfx/4.18.1/env/mingw/msys/1.0/gnu-arm-gcc/bin/../lib/gcc/arm-none-eabi/7.3.1/../../../../arm-none-eabi/lib/thumb/v7e-m/fpv4-sp/hard/crt0.o
 .text          0x00000000        0x0 CM4/TouchGFX/build/STM32H745I_DISCO/Drivers/STM32H7xx_HAL_Driver/Src/stm32h7xx_hal.o
 .data          0x00000000        0x0 CM4/TouchGFX/build/STM32H745I_DISCO/Drivers/STM32H7xx_HAL_Driver/Src/stm32h7xx_hal.o
 .bss           0x00000000        0x0 CM4/TouchGFX/build/STM32H745I_DISCO/Drivers/STM32H7xx_HAL_Driver/Src/stm32h7xx_hal.o
 .text.HAL_MspInit
                0x00000000        0x2 CM4/TouchGFX/build/STM32H745I_DISCO/Drivers/STM32H7xx_HAL_Driver/Src/stm32h7xx_hal.o
 .text.HAL_MspDeInit
                0x00000000        0x2 CM4/TouchGFX/build/STM32H745I_DISCO/Drivers/STM32H7xx_HAL_Driver/Src/stm32h7xx_hal.o
 .text.HAL_DeInit
                0x00000000       0x84 CM4/TouchGFX/build/STM32H745I_DISCO/Drivers/STM32H7xx_HAL_Driver/Src/stm32h7xx_hal.o
 .text.HAL_GetTick
                0x00000000        0xc CM4/TouchGFX/build/STM32H745I_DISCO/Drivers/STM32H7xx_HAL_Driver/Src/stm32h7xx_hal.o
 .text.HAL_GetTickPrio
                0x00000000        0xc CM4/TouchGFX/build/STM32H745I_DISCO/Drivers/STM32H7xx_HAL_Driver/Src/stm32h7xx_hal.o
 .text.HAL_SetTickFreq
                0x00000000       0x28 CM4/TouchGFX/build/STM32H745I_DISCO/Drivers/STM32H7xx_HAL_Driver/Src/stm32h7xx_hal.o
 .text.HAL_GetTickFreq
                0x00000000        0xc CM4/TouchGFX/build/STM32H745I_DISCO/Drivers/STM32H7xx_HAL_Driver/Src/stm32h7xx_hal.o
 .text.HAL_Delay
                0x00000000       0x28 CM4/TouchGFX/build/STM32H745I_DISCO/Drivers/STM32H7xx_HAL_Driver/Src/stm32h7xx_hal.o
 .text.HAL_SuspendTick
                0x00000000       0x10 CM4/TouchGFX/build/STM32H745I_DISCO/Drivers/STM32H7xx_HAL_Driver/Src/stm32h7xx_hal.o
 .text.HAL_ResumeTick
                0x00000000       0x10 CM4/TouchGFX/build/STM32H745I_DISCO/Drivers/STM32H7xx_HAL_Driver/Src/stm32h7xx_hal.o
 .text.HAL_GetHalVersion
                0x00000000        0x6 CM4/TouchGFX/build/STM32H745I_DISCO/Drivers/STM32H7xx_HAL_Driver/Src/stm32h7xx_hal.o
 .text.HAL_GetREVID
                0x00000000        0xc CM4/TouchGFX/build/STM32H745I_DISCO/Drivers/STM32H7xx_HAL_Driver/Src/stm32h7xx_hal.o
 .text.HAL_GetDEVID
                0x00000000       0x10 CM4/TouchGFX/build/STM32H745I_DISCO/Drivers/STM32H7xx_HAL_Driver/Src/stm32h7xx_hal.o
 .text.HAL_GetUIDw0
                0x00000000        0xc CM4/TouchGFX/build/STM32H745I_DISCO/Drivers/STM32H7xx_HAL_Driver/Src/stm32h7xx_hal.o
 .text.HAL_GetUIDw1
                0x00000000        0xc CM4/TouchGFX/build/STM32H745I_DISCO/Drivers/STM32H7xx_HAL_Driver/Src/stm32h7xx_hal.o
 .text.HAL_GetUIDw2
                0x00000000        0xc CM4/TouchGFX/build/STM32H745I_DISCO/Drivers/STM32H7xx_HAL_Driver/Src/stm32h7xx_hal.o
 .text.HAL_SYSCFG_VREFBUF_VoltageScalingConfig
                0x00000000       0x14 CM4/TouchGFX/build/STM32H745I_DISCO/Drivers/STM32H7xx_HAL_Driver/Src/stm32h7xx_hal.o
 .text.HAL_SYSCFG_VREFBUF_HighImpedanceConfig
                0x00000000       0x14 CM4/TouchGFX/build/STM32H745I_DISCO/Drivers/STM32H7xx_HAL_Driver/Src/stm32h7xx_hal.o
 .text.HAL_SYSCFG_VREFBUF_TrimmingConfig
                0x00000000       0x14 CM4/TouchGFX/build/STM32H745I_DISCO/Drivers/STM32H7xx_HAL_Driver/Src/stm32h7xx_hal.o
 .text.HAL_SYSCFG_EnableVREFBUF
                0x00000000       0x30 CM4/TouchGFX/build/STM32H745I_DISCO/Drivers/STM32H7xx_HAL_Driver/Src/stm32h7xx_hal.o
 .text.HAL_SYSCFG_DisableVREFBUF
                0x00000000       0x10 CM4/TouchGFX/build/STM32H745I_DISCO/Drivers/STM32H7xx_HAL_Driver/Src/stm32h7xx_hal.o
 .text.HAL_SYSCFG_ETHInterfaceSelect
                0x00000000       0x14 CM4/TouchGFX/build/STM32H745I_DISCO/Drivers/STM32H7xx_HAL_Driver/Src/stm32h7xx_hal.o
 .text.HAL_SYSCFG_AnalogSwitchConfig
                0x00000000       0x14 CM4/TouchGFX/build/STM32H745I_DISCO/Drivers/STM32H7xx_HAL_Driver/Src/stm32h7xx_hal.o
 .text.HAL_SYSCFG_EnableBOOST
                0x00000000       0x10 CM4/TouchGFX/build/STM32H745I_DISCO/Drivers/STM32H7xx_HAL_Driver/Src/stm32h7xx_hal.o
 .text.HAL_SYSCFG_DisableBOOST
                0x00000000       0x10 CM4/TouchGFX/build/STM32H745I_DISCO/Drivers/STM32H7xx_HAL_Driver/Src/stm32h7xx_hal.o
 .text.HAL_SYSCFG_CM7BootAddConfig
                0x00000000       0x2c CM4/TouchGFX/build/STM32H745I_DISCO/Drivers/STM32H7xx_HAL_Driver/Src/stm32h7xx_hal.o
 .text.HAL_SYSCFG_CM4BootAddConfig
                0x00000000       0x2c CM4/TouchGFX/build/STM32H745I_DISCO/Drivers/STM32H7xx_HAL_Driver/Src/stm32h7xx_hal.o
 .text.HAL_SYSCFG_EnableCM7BOOT
                0x00000000       0x14 CM4/TouchGFX/build/STM32H745I_DISCO/Drivers/STM32H7xx_HAL_Driver/Src/stm32h7xx_hal.o
 .text.HAL_SYSCFG_DisableCM7BOOT
                0x00000000       0x14 CM4/TouchGFX/build/STM32H745I_DISCO/Drivers/STM32H7xx_HAL_Driver/Src/stm32h7xx_hal.o
 .text.HAL_SYSCFG_EnableCM4BOOT
                0x00000000       0x14 CM4/TouchGFX/build/STM32H745I_DISCO/Drivers/STM32H7xx_HAL_Driver/Src/stm32h7xx_hal.o
 .text.HAL_SYSCFG_DisableCM4BOOT
                0x00000000       0x14 CM4/TouchGFX/build/STM32H745I_DISCO/Drivers/STM32H7xx_HAL_Driver/Src/stm32h7xx_hal.o
 .text.HAL_EnableCompensationCell
                0x00000000       0x10 CM4/TouchGFX/build/STM32H745I_DISCO/Drivers/STM32H7xx_HAL_Driver/Src/stm32h7xx_hal.o
 .text.HAL_DisableCompensationCell
                0x00000000       0x10 CM4/TouchGFX/build/STM32H745I_DISCO/Drivers/STM32H7xx_HAL_Driver/Src/stm32h7xx_hal.o
 .text.HAL_SYSCFG_EnableIOSpeedOptimize
                0x00000000       0x10 CM4/TouchGFX/build/STM32H745I_DISCO/Drivers/STM32H7xx_HAL_Driver/Src/stm32h7xx_hal.o
 .text.HAL_SYSCFG_DisableIOSpeedOptimize
                0x00000000       0x10 CM4/TouchGFX/build/STM32H745I_DISCO/Drivers/STM32H7xx_HAL_Driver/Src/stm32h7xx_hal.o
 .text.HAL_SYSCFG_CompensationCodeSelect
                0x00000000       0x14 CM4/TouchGFX/build/STM32H745I_DISCO/Drivers/STM32H7xx_HAL_Driver/Src/stm32h7xx_hal.o
 .text.HAL_SYSCFG_CompensationCodeConfig
                0x00000000       0x18 CM4/TouchGFX/build/STM32H745I_DISCO/Drivers/STM32H7xx_HAL_Driver/Src/stm32h7xx_hal.o
 .text.HAL_DBGMCU_EnableDBGSleepMode
                0x00000000       0x10 CM4/TouchGFX/build/STM32H745I_DISCO/Drivers/STM32H7xx_HAL_Driver/Src/stm32h7xx_hal.o
 .text.HAL_DBGMCU_DisableDBGSleepMode
                0x00000000       0x10 CM4/TouchGFX/build/STM32H745I_DISCO/Drivers/STM32H7xx_HAL_Driver/Src/stm32h7xx_hal.o
 .text.HAL_DBGMCU_EnableDBGStopMode
                0x00000000       0x10 CM4/TouchGFX/build/STM32H745I_DISCO/Drivers/STM32H7xx_HAL_Driver/Src/stm32h7xx_hal.o
 .text.HAL_DBGMCU_DisableDBGStopMode
                0x00000000       0x10 CM4/TouchGFX/build/STM32H745I_DISCO/Drivers/STM32H7xx_HAL_Driver/Src/stm32h7xx_hal.o
 .text.HAL_DBGMCU_EnableDBGStandbyMode
                0x00000000       0x10 CM4/TouchGFX/build/STM32H745I_DISCO/Drivers/STM32H7xx_HAL_Driver/Src/stm32h7xx_hal.o
 .text.HAL_DBGMCU_DisableDBGStandbyMode
                0x00000000       0x10 CM4/TouchGFX/build/STM32H745I_DISCO/Drivers/STM32H7xx_HAL_Driver/Src/stm32h7xx_hal.o
 .text.HAL_EnableDomain2DBGSleepMode
                0x00000000       0x10 CM4/TouchGFX/build/STM32H745I_DISCO/Drivers/STM32H7xx_HAL_Driver/Src/stm32h7xx_hal.o
 .text.HAL_DisableDomain2DBGSleepMode
                0x00000000       0x10 CM4/TouchGFX/build/STM32H745I_DISCO/Drivers/STM32H7xx_HAL_Driver/Src/stm32h7xx_hal.o
 .text.HAL_EnableDomain2DBGStopMode
                0x00000000       0x10 CM4/TouchGFX/build/STM32H745I_DISCO/Drivers/STM32H7xx_HAL_Driver/Src/stm32h7xx_hal.o
 .text.HAL_DisableDomain2DBGStopMode
                0x00000000       0x10 CM4/TouchGFX/build/STM32H745I_DISCO/Drivers/STM32H7xx_HAL_Driver/Src/stm32h7xx_hal.o
 .text.HAL_EnableDomain2DBGStandbyMode
                0x00000000       0x10 CM4/TouchGFX/build/STM32H745I_DISCO/Drivers/STM32H7xx_HAL_Driver/Src/stm32h7xx_hal.o
 .text.HAL_DisableDomain2DBGStandbyMode
                0x00000000       0x10 CM4/TouchGFX/build/STM32H745I_DISCO/Drivers/STM32H7xx_HAL_Driver/Src/stm32h7xx_hal.o
 .text.HAL_SetFMCMemorySwappingConfig
                0x00000000       0x14 CM4/TouchGFX/build/STM32H745I_DISCO/Drivers/STM32H7xx_HAL_Driver/Src/stm32h7xx_hal.o
 .text.HAL_GetFMCMemorySwappingConfig
                0x00000000       0x10 CM4/TouchGFX/build/STM32H745I_DISCO/Drivers/STM32H7xx_HAL_Driver/Src/stm32h7xx_hal.o
 .text.HAL_EXTI_EdgeConfig
                0x00000000       0x36 CM4/TouchGFX/build/STM32H745I_DISCO/Drivers/STM32H7xx_HAL_Driver/Src/stm32h7xx_hal.o
 .text.HAL_EXTI_GenerateSWInterrupt
                0x00000000       0x18 CM4/TouchGFX/build/STM32H745I_DISCO/Drivers/STM32H7xx_HAL_Driver/Src/stm32h7xx_hal.o
 .text.HAL_EXTI_D1_ClearFlag
                0x00000000       0x18 CM4/TouchGFX/build/STM32H745I_DISCO/Drivers/STM32H7xx_HAL_Driver/Src/stm32h7xx_hal.o
 .text.HAL_EXTI_D2_ClearFlag
                0x00000000       0x18 CM4/TouchGFX/build/STM32H745I_DISCO/Drivers/STM32H7xx_HAL_Driver/Src/stm32h7xx_hal.o
 .text.HAL_EXTI_D1_EventInputConfig
                0x00000000       0x52 CM4/TouchGFX/build/STM32H745I_DISCO/Drivers/STM32H7xx_HAL_Driver/Src/stm32h7xx_hal.o
 .text.HAL_EXTI_D2_EventInputConfig
                0x00000000       0x52 CM4/TouchGFX/build/STM32H745I_DISCO/Drivers/STM32H7xx_HAL_Driver/Src/stm32h7xx_hal.o
 .text.HAL_EXTI_D3_EventInputConfig
                0x00000000       0x44 CM4/TouchGFX/build/STM32H745I_DISCO/Drivers/STM32H7xx_HAL_Driver/Src/stm32h7xx_hal.o
 .text          0x00000000        0x0 CM4/TouchGFX/build/STM32H745I_DISCO/Drivers/STM32H7xx_HAL_Driver/Src/stm32h7xx_hal_cortex.o
 .data          0x00000000        0x0 CM4/TouchGFX/build/STM32H745I_DISCO/Drivers/STM32H7xx_HAL_Driver/Src/stm32h7xx_hal_cortex.o
 .bss           0x00000000        0x0 CM4/TouchGFX/build/STM32H745I_DISCO/Drivers/STM32H7xx_HAL_Driver/Src/stm32h7xx_hal_cortex.o
 .text.HAL_NVIC_EnableIRQ
                0x00000000       0x1c CM4/TouchGFX/build/STM32H745I_DISCO/Drivers/STM32H7xx_HAL_Driver/Src/stm32h7xx_hal_cortex.o
 .text.HAL_NVIC_DisableIRQ
                0x00000000       0x28 CM4/TouchGFX/build/STM32H745I_DISCO/Drivers/STM32H7xx_HAL_Driver/Src/stm32h7xx_hal_cortex.o
 .text.HAL_NVIC_SystemReset
                0x00000000       0x24 CM4/TouchGFX/build/STM32H745I_DISCO/Drivers/STM32H7xx_HAL_Driver/Src/stm32h7xx_hal_cortex.o
 .text.HAL_MPU_Disable
                0x00000000       0x20 CM4/TouchGFX/build/STM32H745I_DISCO/Drivers/STM32H7xx_HAL_Driver/Src/stm32h7xx_hal_cortex.o
 .text.HAL_MPU_Enable
                0x00000000       0x24 CM4/TouchGFX/build/STM32H745I_DISCO/Drivers/STM32H7xx_HAL_Driver/Src/stm32h7xx_hal_cortex.o
 .text.HAL_MPU_ConfigRegion
                0x00000000       0x50 CM4/TouchGFX/build/STM32H745I_DISCO/Drivers/STM32H7xx_HAL_Driver/Src/stm32h7xx_hal_cortex.o
 .text.HAL_NVIC_GetPriorityGrouping
                0x00000000       0x10 CM4/TouchGFX/build/STM32H745I_DISCO/Drivers/STM32H7xx_HAL_Driver/Src/stm32h7xx_hal_cortex.o
 .text.HAL_NVIC_GetPriority
                0x00000000       0x5c CM4/TouchGFX/build/STM32H745I_DISCO/Drivers/STM32H7xx_HAL_Driver/Src/stm32h7xx_hal_cortex.o
 .text.HAL_NVIC_SetPendingIRQ
                0x00000000       0x20 CM4/TouchGFX/build/STM32H745I_DISCO/Drivers/STM32H7xx_HAL_Driver/Src/stm32h7xx_hal_cortex.o
 .text.HAL_NVIC_GetPendingIRQ
                0x00000000       0x24 CM4/TouchGFX/build/STM32H745I_DISCO/Drivers/STM32H7xx_HAL_Driver/Src/stm32h7xx_hal_cortex.o
 .text.HAL_NVIC_ClearPendingIRQ
                0x00000000       0x20 CM4/TouchGFX/build/STM32H745I_DISCO/Drivers/STM32H7xx_HAL_Driver/Src/stm32h7xx_hal_cortex.o
 .text.HAL_NVIC_GetActive
                0x00000000       0x24 CM4/TouchGFX/build/STM32H745I_DISCO/Drivers/STM32H7xx_HAL_Driver/Src/stm32h7xx_hal_cortex.o
 .text.HAL_SYSTICK_CLKSourceConfig
                0x00000000       0x18 CM4/TouchGFX/build/STM32H745I_DISCO/Drivers/STM32H7xx_HAL_Driver/Src/stm32h7xx_hal_cortex.o
 .text.HAL_SYSTICK_Callback
                0x00000000        0x2 CM4/TouchGFX/build/STM32H745I_DISCO/Drivers/STM32H7xx_HAL_Driver/Src/stm32h7xx_hal_cortex.o
 .text.HAL_SYSTICK_IRQHandler
                0x00000000        0x8 CM4/TouchGFX/build/STM32H745I_DISCO/Drivers/STM32H7xx_HAL_Driver/Src/stm32h7xx_hal_cortex.o
 .text          0x00000000        0x0 CM4/TouchGFX/build/STM32H745I_DISCO/Drivers/STM32H7xx_HAL_Driver/Src/stm32h7xx_hal_crc.o
 .data          0x00000000        0x0 CM4/TouchGFX/build/STM32H745I_DISCO/Drivers/STM32H7xx_HAL_Driver/Src/stm32h7xx_hal_crc.o
 .bss           0x00000000        0x0 CM4/TouchGFX/build/STM32H745I_DISCO/Drivers/STM32H7xx_HAL_Driver/Src/stm32h7xx_hal_crc.o
 .debug_info    0x00000000      0xa91 CM4/TouchGFX/build/STM32H745I_DISCO/Drivers/STM32H7xx_HAL_Driver/Src/stm32h7xx_hal_crc.o
 .debug_abbrev  0x00000000      0x192 CM4/TouchGFX/build/STM32H745I_DISCO/Drivers/STM32H7xx_HAL_Driver/Src/stm32h7xx_hal_crc.o
 .debug_aranges
                0x00000000       0x18 CM4/TouchGFX/build/STM32H745I_DISCO/Drivers/STM32H7xx_HAL_Driver/Src/stm32h7xx_hal_crc.o
 .debug_line    0x00000000      0x277 CM4/TouchGFX/build/STM32H745I_DISCO/Drivers/STM32H7xx_HAL_Driver/Src/stm32h7xx_hal_crc.o
 .debug_str     0x00000000      0x8af CM4/TouchGFX/build/STM32H745I_DISCO/Drivers/STM32H7xx_HAL_Driver/Src/stm32h7xx_hal_crc.o
 .comment       0x00000000       0x80 CM4/TouchGFX/build/STM32H745I_DISCO/Drivers/STM32H7xx_HAL_Driver/Src/stm32h7xx_hal_crc.o
 .ARM.attributes
                0x00000000       0x39 CM4/TouchGFX/build/STM32H745I_DISCO/Drivers/STM32H7xx_HAL_Driver/Src/stm32h7xx_hal_crc.o
 .text          0x00000000        0x0 CM4/TouchGFX/build/STM32H745I_DISCO/Drivers/STM32H7xx_HAL_Driver/Src/stm32h7xx_hal_crc_ex.o
 .data          0x00000000        0x0 CM4/TouchGFX/build/STM32H745I_DISCO/Drivers/STM32H7xx_HAL_Driver/Src/stm32h7xx_hal_crc_ex.o
 .bss           0x00000000        0x0 CM4/TouchGFX/build/STM32H745I_DISCO/Drivers/STM32H7xx_HAL_Driver/Src/stm32h7xx_hal_crc_ex.o
 .debug_info    0x00000000      0xa91 CM4/TouchGFX/build/STM32H745I_DISCO/Drivers/STM32H7xx_HAL_Driver/Src/stm32h7xx_hal_crc_ex.o
 .debug_abbrev  0x00000000      0x192 CM4/TouchGFX/build/STM32H745I_DISCO/Drivers/STM32H7xx_HAL_Driver/Src/stm32h7xx_hal_crc_ex.o
 .debug_aranges
                0x00000000       0x18 CM4/TouchGFX/build/STM32H745I_DISCO/Drivers/STM32H7xx_HAL_Driver/Src/stm32h7xx_hal_crc_ex.o
 .debug_line    0x00000000      0x277 CM4/TouchGFX/build/STM32H745I_DISCO/Drivers/STM32H7xx_HAL_Driver/Src/stm32h7xx_hal_crc_ex.o
 .debug_str     0x00000000      0x8b2 CM4/TouchGFX/build/STM32H745I_DISCO/Drivers/STM32H7xx_HAL_Driver/Src/stm32h7xx_hal_crc_ex.o
 .comment       0x00000000       0x80 CM4/TouchGFX/build/STM32H745I_DISCO/Drivers/STM32H7xx_HAL_Driver/Src/stm32h7xx_hal_crc_ex.o
 .ARM.attributes
                0x00000000       0x39 CM4/TouchGFX/build/STM32H745I_DISCO/Drivers/STM32H7xx_HAL_Driver/Src/stm32h7xx_hal_crc_ex.o
 .text          0x00000000        0x0 CM4/TouchGFX/build/STM32H745I_DISCO/Drivers/STM32H7xx_HAL_Driver/Src/stm32h7xx_hal_dma.o
 .data          0x00000000        0x0 CM4/TouchGFX/build/STM32H745I_DISCO/Drivers/STM32H7xx_HAL_Driver/Src/stm32h7xx_hal_dma.o
 .bss           0x00000000        0x0 CM4/TouchGFX/build/STM32H745I_DISCO/Drivers/STM32H7xx_HAL_Driver/Src/stm32h7xx_hal_dma.o
 .text.DMA_SetConfig
                0x00000000      0x180 CM4/TouchGFX/build/STM32H745I_DISCO/Drivers/STM32H7xx_HAL_Driver/Src/stm32h7xx_hal_dma.o
 .text.DMA_CalcBaseAndBitshift
                0x00000000       0x9c CM4/TouchGFX/build/STM32H745I_DISCO/Drivers/STM32H7xx_HAL_Driver/Src/stm32h7xx_hal_dma.o
 .text.DMA_CalcDMAMUXChannelBaseAndMask
                0x00000000       0x90 CM4/TouchGFX/build/STM32H745I_DISCO/Drivers/STM32H7xx_HAL_Driver/Src/stm32h7xx_hal_dma.o
 .text.DMA_CalcDMAMUXRequestGenBaseAndMask
                0x00000000       0x70 CM4/TouchGFX/build/STM32H745I_DISCO/Drivers/STM32H7xx_HAL_Driver/Src/stm32h7xx_hal_dma.o
 .text.HAL_DMA_Init
                0x00000000      0x388 CM4/TouchGFX/build/STM32H745I_DISCO/Drivers/STM32H7xx_HAL_Driver/Src/stm32h7xx_hal_dma.o
 .text.HAL_DMA_DeInit
                0x00000000      0x1b4 CM4/TouchGFX/build/STM32H745I_DISCO/Drivers/STM32H7xx_HAL_Driver/Src/stm32h7xx_hal_dma.o
 .text.HAL_DMA_Start
                0x00000000       0xec CM4/TouchGFX/build/STM32H745I_DISCO/Drivers/STM32H7xx_HAL_Driver/Src/stm32h7xx_hal_dma.o
 .text.HAL_DMA_Start_IT
                0x00000000      0x23c CM4/TouchGFX/build/STM32H745I_DISCO/Drivers/STM32H7xx_HAL_Driver/Src/stm32h7xx_hal_dma.o
 .text.HAL_DMA_Abort
                0x00000000      0x364 CM4/TouchGFX/build/STM32H745I_DISCO/Drivers/STM32H7xx_HAL_Driver/Src/stm32h7xx_hal_dma.o
 .text.HAL_DMA_Abort_IT
                0x00000000      0x168 CM4/TouchGFX/build/STM32H745I_DISCO/Drivers/STM32H7xx_HAL_Driver/Src/stm32h7xx_hal_dma.o
 .text.HAL_DMA_PollForTransfer
                0x00000000      0x3d0 CM4/TouchGFX/build/STM32H745I_DISCO/Drivers/STM32H7xx_HAL_Driver/Src/stm32h7xx_hal_dma.o
 .text.HAL_DMA_IRQHandler
                0x00000000      0x54c CM4/TouchGFX/build/STM32H745I_DISCO/Drivers/STM32H7xx_HAL_Driver/Src/stm32h7xx_hal_dma.o
 .text.HAL_DMA_RegisterCallback
                0x00000000       0x56 CM4/TouchGFX/build/STM32H745I_DISCO/Drivers/STM32H7xx_HAL_Driver/Src/stm32h7xx_hal_dma.o
 .text.HAL_DMA_UnRegisterCallback
                0x00000000       0x62 CM4/TouchGFX/build/STM32H745I_DISCO/Drivers/STM32H7xx_HAL_Driver/Src/stm32h7xx_hal_dma.o
 .text.HAL_DMA_GetState
                0x00000000        0x6 CM4/TouchGFX/build/STM32H745I_DISCO/Drivers/STM32H7xx_HAL_Driver/Src/stm32h7xx_hal_dma.o
 .text.HAL_DMA_GetError
                0x00000000        0x4 CM4/TouchGFX/build/STM32H745I_DISCO/Drivers/STM32H7xx_HAL_Driver/Src/stm32h7xx_hal_dma.o
 .rodata.flagBitshiftOffset.10047
                0x00000000        0x8 CM4/TouchGFX/build/STM32H745I_DISCO/Drivers/STM32H7xx_HAL_Driver/Src/stm32h7xx_hal_dma.o
 .debug_info    0x00000000     0x1745 CM4/TouchGFX/build/STM32H745I_DISCO/Drivers/STM32H7xx_HAL_Driver/Src/stm32h7xx_hal_dma.o
 .debug_abbrev  0x00000000      0x349 CM4/TouchGFX/build/STM32H745I_DISCO/Drivers/STM32H7xx_HAL_Driver/Src/stm32h7xx_hal_dma.o
 .debug_loc     0x00000000      0xa9a CM4/TouchGFX/build/STM32H745I_DISCO/Drivers/STM32H7xx_HAL_Driver/Src/stm32h7xx_hal_dma.o
 .debug_aranges
                0x00000000       0x98 CM4/TouchGFX/build/STM32H745I_DISCO/Drivers/STM32H7xx_HAL_Driver/Src/stm32h7xx_hal_dma.o
 .debug_ranges  0x00000000       0xc0 CM4/TouchGFX/build/STM32H745I_DISCO/Drivers/STM32H7xx_HAL_Driver/Src/stm32h7xx_hal_dma.o
 .debug_line    0x00000000     0x13b1 CM4/TouchGFX/build/STM32H745I_DISCO/Drivers/STM32H7xx_HAL_Driver/Src/stm32h7xx_hal_dma.o
 .debug_str     0x00000000     0x104f CM4/TouchGFX/build/STM32H745I_DISCO/Drivers/STM32H7xx_HAL_Driver/Src/stm32h7xx_hal_dma.o
 .comment       0x00000000       0x80 CM4/TouchGFX/build/STM32H745I_DISCO/Drivers/STM32H7xx_HAL_Driver/Src/stm32h7xx_hal_dma.o
 .debug_frame   0x00000000      0x1c4 CM4/TouchGFX/build/STM32H745I_DISCO/Drivers/STM32H7xx_HAL_Driver/Src/stm32h7xx_hal_dma.o
 .ARM.attributes
                0x00000000       0x39 CM4/TouchGFX/build/STM32H745I_DISCO/Drivers/STM32H7xx_HAL_Driver/Src/stm32h7xx_hal_dma.o
 .text          0x00000000        0x0 CM4/TouchGFX/build/STM32H745I_DISCO/Drivers/STM32H7xx_HAL_Driver/Src/stm32h7xx_hal_dma_ex.o
 .data          0x00000000        0x0 CM4/TouchGFX/build/STM32H745I_DISCO/Drivers/STM32H7xx_HAL_Driver/Src/stm32h7xx_hal_dma_ex.o
 .bss           0x00000000        0x0 CM4/TouchGFX/build/STM32H745I_DISCO/Drivers/STM32H7xx_HAL_Driver/Src/stm32h7xx_hal_dma_ex.o
 .text.DMA_MultiBufferSetConfig
                0x00000000       0x60 CM4/TouchGFX/build/STM32H745I_DISCO/Drivers/STM32H7xx_HAL_Driver/Src/stm32h7xx_hal_dma_ex.o
 .text.HAL_DMAEx_MultiBufferStart
                0x00000000      0x204 CM4/TouchGFX/build/STM32H745I_DISCO/Drivers/STM32H7xx_HAL_Driver/Src/stm32h7xx_hal_dma_ex.o
 .text.HAL_DMAEx_MultiBufferStart_IT
                0x00000000      0x348 CM4/TouchGFX/build/STM32H745I_DISCO/Drivers/STM32H7xx_HAL_Driver/Src/stm32h7xx_hal_dma_ex.o
 .text.HAL_DMAEx_ChangeMemory
                0x00000000       0x58 CM4/TouchGFX/build/STM32H745I_DISCO/Drivers/STM32H7xx_HAL_Driver/Src/stm32h7xx_hal_dma_ex.o
 .text.HAL_DMAEx_ConfigMuxSync
                0x00000000       0x60 CM4/TouchGFX/build/STM32H745I_DISCO/Drivers/STM32H7xx_HAL_Driver/Src/stm32h7xx_hal_dma_ex.o
 .text.HAL_DMAEx_ConfigMuxRequestGenerator
                0x00000000       0x4a CM4/TouchGFX/build/STM32H745I_DISCO/Drivers/STM32H7xx_HAL_Driver/Src/stm32h7xx_hal_dma_ex.o
 .text.HAL_DMAEx_EnableMuxRequestGenerator
                0x00000000       0x1a CM4/TouchGFX/build/STM32H745I_DISCO/Drivers/STM32H7xx_HAL_Driver/Src/stm32h7xx_hal_dma_ex.o
 .text.HAL_DMAEx_DisableMuxRequestGenerator
                0x00000000       0x1a CM4/TouchGFX/build/STM32H745I_DISCO/Drivers/STM32H7xx_HAL_Driver/Src/stm32h7xx_hal_dma_ex.o
 .text.HAL_DMAEx_MUX_IRQHandler
                0x00000000       0x56 CM4/TouchGFX/build/STM32H745I_DISCO/Drivers/STM32H7xx_HAL_Driver/Src/stm32h7xx_hal_dma_ex.o
 .debug_info    0x00000000     0x123f CM4/TouchGFX/build/STM32H745I_DISCO/Drivers/STM32H7xx_HAL_Driver/Src/stm32h7xx_hal_dma_ex.o
 .debug_abbrev  0x00000000      0x2af CM4/TouchGFX/build/STM32H745I_DISCO/Drivers/STM32H7xx_HAL_Driver/Src/stm32h7xx_hal_dma_ex.o
 .debug_loc     0x00000000      0x5d9 CM4/TouchGFX/build/STM32H745I_DISCO/Drivers/STM32H7xx_HAL_Driver/Src/stm32h7xx_hal_dma_ex.o
 .debug_aranges
                0x00000000       0x60 CM4/TouchGFX/build/STM32H745I_DISCO/Drivers/STM32H7xx_HAL_Driver/Src/stm32h7xx_hal_dma_ex.o
 .debug_ranges  0x00000000       0x50 CM4/TouchGFX/build/STM32H745I_DISCO/Drivers/STM32H7xx_HAL_Driver/Src/stm32h7xx_hal_dma_ex.o
 .debug_line    0x00000000      0x821 CM4/TouchGFX/build/STM32H745I_DISCO/Drivers/STM32H7xx_HAL_Driver/Src/stm32h7xx_hal_dma_ex.o
 .debug_str     0x00000000      0xe92 CM4/TouchGFX/build/STM32H745I_DISCO/Drivers/STM32H7xx_HAL_Driver/Src/stm32h7xx_hal_dma_ex.o
 .comment       0x00000000       0x80 CM4/TouchGFX/build/STM32H745I_DISCO/Drivers/STM32H7xx_HAL_Driver/Src/stm32h7xx_hal_dma_ex.o
 .debug_frame   0x00000000      0x100 CM4/TouchGFX/build/STM32H745I_DISCO/Drivers/STM32H7xx_HAL_Driver/Src/stm32h7xx_hal_dma_ex.o
 .ARM.attributes
                0x00000000       0x39 CM4/TouchGFX/build/STM32H745I_DISCO/Drivers/STM32H7xx_HAL_Driver/Src/stm32h7xx_hal_dma_ex.o
 .text          0x00000000        0x0 CM4/TouchGFX/build/STM32H745I_DISCO/Drivers/STM32H7xx_HAL_Driver/Src/stm32h7xx_hal_dma2d.o
 .data          0x00000000        0x0 CM4/TouchGFX/build/STM32H745I_DISCO/Drivers/STM32H7xx_HAL_Driver/Src/stm32h7xx_hal_dma2d.o
 .bss           0x00000000        0x0 CM4/TouchGFX/build/STM32H745I_DISCO/Drivers/STM32H7xx_HAL_Driver/Src/stm32h7xx_hal_dma2d.o
 .debug_info    0x00000000      0xa91 CM4/TouchGFX/build/STM32H745I_DISCO/Drivers/STM32H7xx_HAL_Driver/Src/stm32h7xx_hal_dma2d.o
 .debug_abbrev  0x00000000      0x192 CM4/TouchGFX/build/STM32H745I_DISCO/Drivers/STM32H7xx_HAL_Driver/Src/stm32h7xx_hal_dma2d.o
 .debug_aranges
                0x00000000       0x18 CM4/TouchGFX/build/STM32H745I_DISCO/Drivers/STM32H7xx_HAL_Driver/Src/stm32h7xx_hal_dma2d.o
 .debug_line    0x00000000      0x277 CM4/TouchGFX/build/STM32H745I_DISCO/Drivers/STM32H7xx_HAL_Driver/Src/stm32h7xx_hal_dma2d.o
 .debug_str     0x00000000      0x8b1 CM4/TouchGFX/build/STM32H745I_DISCO/Drivers/STM32H7xx_HAL_Driver/Src/stm32h7xx_hal_dma2d.o
 .comment       0x00000000       0x80 CM4/TouchGFX/build/STM32H745I_DISCO/Drivers/STM32H7xx_HAL_Driver/Src/stm32h7xx_hal_dma2d.o
 .ARM.attributes
                0x00000000       0x39 CM4/TouchGFX/build/STM32H745I_DISCO/Drivers/STM32H7xx_HAL_Driver/Src/stm32h7xx_hal_dma2d.o
 .text          0x00000000        0x0 CM4/TouchGFX/build/STM32H745I_DISCO/Drivers/STM32H7xx_HAL_Driver/Src/stm32h7xx_hal_exti.o
 .data          0x00000000        0x0 CM4/TouchGFX/build/STM32H745I_DISCO/Drivers/STM32H7xx_HAL_Driver/Src/stm32h7xx_hal_exti.o
 .bss           0x00000000        0x0 CM4/TouchGFX/build/STM32H745I_DISCO/Drivers/STM32H7xx_HAL_Driver/Src/stm32h7xx_hal_exti.o
 .text.HAL_EXTI_SetConfigLine
                0x00000000      0x118 CM4/TouchGFX/build/STM32H745I_DISCO/Drivers/STM32H7xx_HAL_Driver/Src/stm32h7xx_hal_exti.o
 .text.HAL_EXTI_GetConfigLine
                0x00000000       0xf4 CM4/TouchGFX/build/STM32H745I_DISCO/Drivers/STM32H7xx_HAL_Driver/Src/stm32h7xx_hal_exti.o
 .text.HAL_EXTI_ClearConfigLine
                0x00000000       0xca CM4/TouchGFX/build/STM32H745I_DISCO/Drivers/STM32H7xx_HAL_Driver/Src/stm32h7xx_hal_exti.o
 .text.HAL_EXTI_RegisterCallback
                0x00000000        0xe CM4/TouchGFX/build/STM32H745I_DISCO/Drivers/STM32H7xx_HAL_Driver/Src/stm32h7xx_hal_exti.o
 .text.HAL_EXTI_GetHandle
                0x00000000        0xc CM4/TouchGFX/build/STM32H745I_DISCO/Drivers/STM32H7xx_HAL_Driver/Src/stm32h7xx_hal_exti.o
 .text.HAL_EXTI_IRQHandler
                0x00000000       0x38 CM4/TouchGFX/build/STM32H745I_DISCO/Drivers/STM32H7xx_HAL_Driver/Src/stm32h7xx_hal_exti.o
 .text.HAL_EXTI_GetPending
                0x00000000       0x2c CM4/TouchGFX/build/STM32H745I_DISCO/Drivers/STM32H7xx_HAL_Driver/Src/stm32h7xx_hal_exti.o
 .text.HAL_EXTI_ClearPending
                0x00000000       0x26 CM4/TouchGFX/build/STM32H745I_DISCO/Drivers/STM32H7xx_HAL_Driver/Src/stm32h7xx_hal_exti.o
 .text.HAL_EXTI_GenerateSWI
                0x00000000       0x18 CM4/TouchGFX/build/STM32H745I_DISCO/Drivers/STM32H7xx_HAL_Driver/Src/stm32h7xx_hal_exti.o
 .debug_info    0x00000000     0x13eb CM4/TouchGFX/build/STM32H745I_DISCO/Drivers/STM32H7xx_HAL_Driver/Src/stm32h7xx_hal_exti.o
 .debug_abbrev  0x00000000      0x2bc CM4/TouchGFX/build/STM32H745I_DISCO/Drivers/STM32H7xx_HAL_Driver/Src/stm32h7xx_hal_exti.o
 .debug_loc     0x00000000      0x8f1 CM4/TouchGFX/build/STM32H745I_DISCO/Drivers/STM32H7xx_HAL_Driver/Src/stm32h7xx_hal_exti.o
 .debug_aranges
                0x00000000       0x60 CM4/TouchGFX/build/STM32H745I_DISCO/Drivers/STM32H7xx_HAL_Driver/Src/stm32h7xx_hal_exti.o
 .debug_ranges  0x00000000       0x50 CM4/TouchGFX/build/STM32H745I_DISCO/Drivers/STM32H7xx_HAL_Driver/Src/stm32h7xx_hal_exti.o
 .debug_line    0x00000000      0x4ac CM4/TouchGFX/build/STM32H745I_DISCO/Drivers/STM32H7xx_HAL_Driver/Src/stm32h7xx_hal_exti.o
 .debug_str     0x00000000      0xc59 CM4/TouchGFX/build/STM32H745I_DISCO/Drivers/STM32H7xx_HAL_Driver/Src/stm32h7xx_hal_exti.o
 .comment       0x00000000       0x80 CM4/TouchGFX/build/STM32H745I_DISCO/Drivers/STM32H7xx_HAL_Driver/Src/stm32h7xx_hal_exti.o
 .debug_frame   0x00000000      0x100 CM4/TouchGFX/build/STM32H745I_DISCO/Drivers/STM32H7xx_HAL_Driver/Src/stm32h7xx_hal_exti.o
 .ARM.attributes
                0x00000000       0x39 CM4/TouchGFX/build/STM32H745I_DISCO/Drivers/STM32H7xx_HAL_Driver/Src/stm32h7xx_hal_exti.o
 .text          0x00000000        0x0 CM4/TouchGFX/build/STM32H745I_DISCO/Drivers/STM32H7xx_HAL_Driver/Src/stm32h7xx_hal_flash.o
 .data          0x00000000        0x0 CM4/TouchGFX/build/STM32H745I_DISCO/Drivers/STM32H7xx_HAL_Driver/Src/stm32h7xx_hal_flash.o
 .bss           0x00000000        0x0 CM4/TouchGFX/build/STM32H745I_DISCO/Drivers/STM32H7xx_HAL_Driver/Src/stm32h7xx_hal_flash.o
 .text.HAL_FLASH_EndOfOperationCallback
                0x00000000        0x2 CM4/TouchGFX/build/STM32H745I_DISCO/Drivers/STM32H7xx_HAL_Driver/Src/stm32h7xx_hal_flash.o
 .text.HAL_FLASH_OperationErrorCallback
                0x00000000        0x2 CM4/TouchGFX/build/STM32H745I_DISCO/Drivers/STM32H7xx_HAL_Driver/Src/stm32h7xx_hal_flash.o
 .text.HAL_FLASH_IRQHandler
                0x00000000      0x1ac CM4/TouchGFX/build/STM32H745I_DISCO/Drivers/STM32H7xx_HAL_Driver/Src/stm32h7xx_hal_flash.o
 .text.HAL_FLASH_Unlock
                0x00000000       0x4c CM4/TouchGFX/build/STM32H745I_DISCO/Drivers/STM32H7xx_HAL_Driver/Src/stm32h7xx_hal_flash.o
 .text.HAL_FLASH_Lock
                0x00000000       0x30 CM4/TouchGFX/build/STM32H745I_DISCO/Drivers/STM32H7xx_HAL_Driver/Src/stm32h7xx_hal_flash.o
 .text.HAL_FLASH_OB_Unlock
                0x00000000       0x24 CM4/TouchGFX/build/STM32H745I_DISCO/Drivers/STM32H7xx_HAL_Driver/Src/stm32h7xx_hal_flash.o
 .text.HAL_FLASH_OB_Lock
                0x00000000       0x18 CM4/TouchGFX/build/STM32H745I_DISCO/Drivers/STM32H7xx_HAL_Driver/Src/stm32h7xx_hal_flash.o
 .text.HAL_FLASH_GetError
                0x00000000        0xc CM4/TouchGFX/build/STM32H745I_DISCO/Drivers/STM32H7xx_HAL_Driver/Src/stm32h7xx_hal_flash.o
 .text.FLASH_WaitForLastOperation
                0x00000000       0xc0 CM4/TouchGFX/build/STM32H745I_DISCO/Drivers/STM32H7xx_HAL_Driver/Src/stm32h7xx_hal_flash.o
 .text.HAL_FLASH_Program
                0x00000000       0xb8 CM4/TouchGFX/build/STM32H745I_DISCO/Drivers/STM32H7xx_HAL_Driver/Src/stm32h7xx_hal_flash.o
 .text.HAL_FLASH_Program_IT
                0x00000000       0xb0 CM4/TouchGFX/build/STM32H745I_DISCO/Drivers/STM32H7xx_HAL_Driver/Src/stm32h7xx_hal_flash.o
 .text.FLASH_OB_WaitForLastOperation
                0x00000000       0x50 CM4/TouchGFX/build/STM32H745I_DISCO/Drivers/STM32H7xx_HAL_Driver/Src/stm32h7xx_hal_flash.o
 .text.FLASH_CRC_WaitForLastOperation
                0x00000000       0x9c CM4/TouchGFX/build/STM32H745I_DISCO/Drivers/STM32H7xx_HAL_Driver/Src/stm32h7xx_hal_flash.o
 .text.HAL_FLASH_OB_Launch
                0x00000000       0x38 CM4/TouchGFX/build/STM32H745I_DISCO/Drivers/STM32H7xx_HAL_Driver/Src/stm32h7xx_hal_flash.o
 .debug_info    0x00000000     0x1343 CM4/TouchGFX/build/STM32H745I_DISCO/Drivers/STM32H7xx_HAL_Driver/Src/stm32h7xx_hal_flash.o
 .debug_abbrev  0x00000000      0x3a0 CM4/TouchGFX/build/STM32H745I_DISCO/Drivers/STM32H7xx_HAL_Driver/Src/stm32h7xx_hal_flash.o
 .debug_loc     0x00000000      0x651 CM4/TouchGFX/build/STM32H745I_DISCO/Drivers/STM32H7xx_HAL_Driver/Src/stm32h7xx_hal_flash.o
 .debug_aranges
                0x00000000       0x80 CM4/TouchGFX/build/STM32H745I_DISCO/Drivers/STM32H7xx_HAL_Driver/Src/stm32h7xx_hal_flash.o
 .debug_ranges  0x00000000       0x70 CM4/TouchGFX/build/STM32H745I_DISCO/Drivers/STM32H7xx_HAL_Driver/Src/stm32h7xx_hal_flash.o
 .debug_line    0x00000000      0x5fc CM4/TouchGFX/build/STM32H745I_DISCO/Drivers/STM32H7xx_HAL_Driver/Src/stm32h7xx_hal_flash.o
 .debug_str     0x00000000      0xc57 CM4/TouchGFX/build/STM32H745I_DISCO/Drivers/STM32H7xx_HAL_Driver/Src/stm32h7xx_hal_flash.o
 .comment       0x00000000       0x80 CM4/TouchGFX/build/STM32H745I_DISCO/Drivers/STM32H7xx_HAL_Driver/Src/stm32h7xx_hal_flash.o
 .debug_frame   0x00000000      0x15c CM4/TouchGFX/build/STM32H745I_DISCO/Drivers/STM32H7xx_HAL_Driver/Src/stm32h7xx_hal_flash.o
 .ARM.attributes
                0x00000000       0x39 CM4/TouchGFX/build/STM32H745I_DISCO/Drivers/STM32H7xx_HAL_Driver/Src/stm32h7xx_hal_flash.o
 COMMON         0x00000000       0x1c CM4/TouchGFX/build/STM32H745I_DISCO/Drivers/STM32H7xx_HAL_Driver/Src/stm32h7xx_hal_flash.o
 .text          0x00000000        0x0 CM4/TouchGFX/build/STM32H745I_DISCO/Drivers/STM32H7xx_HAL_Driver/Src/stm32h7xx_hal_flash_ex.o
 .data          0x00000000        0x0 CM4/TouchGFX/build/STM32H745I_DISCO/Drivers/STM32H7xx_HAL_Driver/Src/stm32h7xx_hal_flash_ex.o
 .bss           0x00000000        0x0 CM4/TouchGFX/build/STM32H745I_DISCO/Drivers/STM32H7xx_HAL_Driver/Src/stm32h7xx_hal_flash_ex.o
 .text.FLASH_MassErase
                0x00000000       0x84 CM4/TouchGFX/build/STM32H745I_DISCO/Drivers/STM32H7xx_HAL_Driver/Src/stm32h7xx_hal_flash_ex.o
 .text.HAL_FLASHEx_OBProgram
                0x00000000      0x2c8 CM4/TouchGFX/build/STM32H745I_DISCO/Drivers/STM32H7xx_HAL_Driver/Src/stm32h7xx_hal_flash_ex.o
 .text.HAL_FLASHEx_OBGetConfig
                0x00000000       0xdc CM4/TouchGFX/build/STM32H745I_DISCO/Drivers/STM32H7xx_HAL_Driver/Src/stm32h7xx_hal_flash_ex.o
 .text.HAL_FLASHEx_Unlock_Bank1
                0x00000000       0x24 CM4/TouchGFX/build/STM32H745I_DISCO/Drivers/STM32H7xx_HAL_Driver/Src/stm32h7xx_hal_flash_ex.o
 .text.HAL_FLASHEx_Lock_Bank1
                0x00000000       0x14 CM4/TouchGFX/build/STM32H745I_DISCO/Drivers/STM32H7xx_HAL_Driver/Src/stm32h7xx_hal_flash_ex.o
 .text.HAL_FLASHEx_Unlock_Bank2
                0x00000000       0x2c CM4/TouchGFX/build/STM32H745I_DISCO/Drivers/STM32H7xx_HAL_Driver/Src/stm32h7xx_hal_flash_ex.o
 .text.HAL_FLASHEx_Lock_Bank2
                0x00000000       0x18 CM4/TouchGFX/build/STM32H745I_DISCO/Drivers/STM32H7xx_HAL_Driver/Src/stm32h7xx_hal_flash_ex.o
 .text.HAL_FLASHEx_ComputeCRC
                0x00000000      0x168 CM4/TouchGFX/build/STM32H745I_DISCO/Drivers/STM32H7xx_HAL_Driver/Src/stm32h7xx_hal_flash_ex.o
 .text.FLASH_Erase_Sector
                0x00000000       0x48 CM4/TouchGFX/build/STM32H745I_DISCO/Drivers/STM32H7xx_HAL_Driver/Src/stm32h7xx_hal_flash_ex.o
 .text.HAL_FLASHEx_Erase
                0x00000000      0x120 CM4/TouchGFX/build/STM32H745I_DISCO/Drivers/STM32H7xx_HAL_Driver/Src/stm32h7xx_hal_flash_ex.o
 .text.HAL_FLASHEx_Erase_IT
                0x00000000       0xb8 CM4/TouchGFX/build/STM32H745I_DISCO/Drivers/STM32H7xx_HAL_Driver/Src/stm32h7xx_hal_flash_ex.o
 .debug_info    0x00000000     0x1af3 CM4/TouchGFX/build/STM32H745I_DISCO/Drivers/STM32H7xx_HAL_Driver/Src/stm32h7xx_hal_flash_ex.o
 .debug_abbrev  0x00000000      0x3b2 CM4/TouchGFX/build/STM32H745I_DISCO/Drivers/STM32H7xx_HAL_Driver/Src/stm32h7xx_hal_flash_ex.o
 .debug_loc     0x00000000      0x97d CM4/TouchGFX/build/STM32H745I_DISCO/Drivers/STM32H7xx_HAL_Driver/Src/stm32h7xx_hal_flash_ex.o
 .debug_aranges
                0x00000000       0x70 CM4/TouchGFX/build/STM32H745I_DISCO/Drivers/STM32H7xx_HAL_Driver/Src/stm32h7xx_hal_flash_ex.o
 .debug_ranges  0x00000000      0x140 CM4/TouchGFX/build/STM32H745I_DISCO/Drivers/STM32H7xx_HAL_Driver/Src/stm32h7xx_hal_flash_ex.o
 .debug_line    0x00000000      0x673 CM4/TouchGFX/build/STM32H745I_DISCO/Drivers/STM32H7xx_HAL_Driver/Src/stm32h7xx_hal_flash_ex.o
 .debug_str     0x00000000      0xf72 CM4/TouchGFX/build/STM32H745I_DISCO/Drivers/STM32H7xx_HAL_Driver/Src/stm32h7xx_hal_flash_ex.o
 .comment       0x00000000       0x80 CM4/TouchGFX/build/STM32H745I_DISCO/Drivers/STM32H7xx_HAL_Driver/Src/stm32h7xx_hal_flash_ex.o
 .debug_frame   0x00000000      0x110 CM4/TouchGFX/build/STM32H745I_DISCO/Drivers/STM32H7xx_HAL_Driver/Src/stm32h7xx_hal_flash_ex.o
 .ARM.attributes
                0x00000000       0x39 CM4/TouchGFX/build/STM32H745I_DISCO/Drivers/STM32H7xx_HAL_Driver/Src/stm32h7xx_hal_flash_ex.o
 .text          0x00000000        0x0 CM4/TouchGFX/build/STM32H745I_DISCO/Drivers/STM32H7xx_HAL_Driver/Src/stm32h7xx_hal_gpio.o
 .data          0x00000000        0x0 CM4/TouchGFX/build/STM32H745I_DISCO/Drivers/STM32H7xx_HAL_Driver/Src/stm32h7xx_hal_gpio.o
 .bss           0x00000000        0x0 CM4/TouchGFX/build/STM32H745I_DISCO/Drivers/STM32H7xx_HAL_Driver/Src/stm32h7xx_hal_gpio.o
 .text.HAL_GPIO_Init
                0x00000000      0x1d0 CM4/TouchGFX/build/STM32H745I_DISCO/Drivers/STM32H7xx_HAL_Driver/Src/stm32h7xx_hal_gpio.o
 .text.HAL_GPIO_DeInit
                0x00000000      0x148 CM4/TouchGFX/build/STM32H745I_DISCO/Drivers/STM32H7xx_HAL_Driver/Src/stm32h7xx_hal_gpio.o
 .text.HAL_GPIO_ReadPin
                0x00000000        0xc CM4/TouchGFX/build/STM32H745I_DISCO/Drivers/STM32H7xx_HAL_Driver/Src/stm32h7xx_hal_gpio.o
 .text.HAL_GPIO_WritePin
                0x00000000        0xa CM4/TouchGFX/build/STM32H745I_DISCO/Drivers/STM32H7xx_HAL_Driver/Src/stm32h7xx_hal_gpio.o
 .text.HAL_GPIO_TogglePin
                0x00000000       0x12 CM4/TouchGFX/build/STM32H745I_DISCO/Drivers/STM32H7xx_HAL_Driver/Src/stm32h7xx_hal_gpio.o
 .text.HAL_GPIO_LockPin
                0x00000000       0x2a CM4/TouchGFX/build/STM32H745I_DISCO/Drivers/STM32H7xx_HAL_Driver/Src/stm32h7xx_hal_gpio.o
 .text.HAL_GPIO_EXTI_Callback
                0x00000000        0x2 CM4/TouchGFX/build/STM32H745I_DISCO/Drivers/STM32H7xx_HAL_Driver/Src/stm32h7xx_hal_gpio.o
 .text.HAL_GPIO_EXTI_IRQHandler
                0x00000000       0x18 CM4/TouchGFX/build/STM32H745I_DISCO/Drivers/STM32H7xx_HAL_Driver/Src/stm32h7xx_hal_gpio.o
 .debug_info    0x00000000     0x1708 CM4/TouchGFX/build/STM32H745I_DISCO/Drivers/STM32H7xx_HAL_Driver/Src/stm32h7xx_hal_gpio.o
 .debug_abbrev  0x00000000      0x2d5 CM4/TouchGFX/build/STM32H745I_DISCO/Drivers/STM32H7xx_HAL_Driver/Src/stm32h7xx_hal_gpio.o
 .debug_loc     0x00000000      0x2b6 CM4/TouchGFX/build/STM32H745I_DISCO/Drivers/STM32H7xx_HAL_Driver/Src/stm32h7xx_hal_gpio.o
 .debug_aranges
                0x00000000       0x58 CM4/TouchGFX/build/STM32H745I_DISCO/Drivers/STM32H7xx_HAL_Driver/Src/stm32h7xx_hal_gpio.o
 .debug_ranges  0x00000000       0x68 CM4/TouchGFX/build/STM32H745I_DISCO/Drivers/STM32H7xx_HAL_Driver/Src/stm32h7xx_hal_gpio.o
 .debug_line    0x00000000      0x4b6 CM4/TouchGFX/build/STM32H745I_DISCO/Drivers/STM32H7xx_HAL_Driver/Src/stm32h7xx_hal_gpio.o
 .debug_str     0x00000000      0xdf5 CM4/TouchGFX/build/STM32H745I_DISCO/Drivers/STM32H7xx_HAL_Driver/Src/stm32h7xx_hal_gpio.o
 .comment       0x00000000       0x80 CM4/TouchGFX/build/STM32H745I_DISCO/Drivers/STM32H7xx_HAL_Driver/Src/stm32h7xx_hal_gpio.o
 .debug_frame   0x00000000       0xd8 CM4/TouchGFX/build/STM32H745I_DISCO/Drivers/STM32H7xx_HAL_Driver/Src/stm32h7xx_hal_gpio.o
 .ARM.attributes
                0x00000000       0x39 CM4/TouchGFX/build/STM32H745I_DISCO/Drivers/STM32H7xx_HAL_Driver/Src/stm32h7xx_hal_gpio.o
 .text          0x00000000        0x0 CM4/TouchGFX/build/STM32H745I_DISCO/Drivers/STM32H7xx_HAL_Driver/Src/stm32h7xx_hal_hsem.o
 .data          0x00000000        0x0 CM4/TouchGFX/build/STM32H745I_DISCO/Drivers/STM32H7xx_HAL_Driver/Src/stm32h7xx_hal_hsem.o
 .bss           0x00000000        0x0 CM4/TouchGFX/build/STM32H745I_DISCO/Drivers/STM32H7xx_HAL_Driver/Src/stm32h7xx_hal_hsem.o
 .text.HAL_HSEM_Take
                0x00000000       0x1e CM4/TouchGFX/build/STM32H745I_DISCO/Drivers/STM32H7xx_HAL_Driver/Src/stm32h7xx_hal_hsem.o
 .text.HAL_HSEM_FastTake
                0x00000000       0x1c CM4/TouchGFX/build/STM32H745I_DISCO/Drivers/STM32H7xx_HAL_Driver/Src/stm32h7xx_hal_hsem.o
 .text.HAL_HSEM_IsSemTaken
                0x00000000       0x10 CM4/TouchGFX/build/STM32H745I_DISCO/Drivers/STM32H7xx_HAL_Driver/Src/stm32h7xx_hal_hsem.o
 .text.HAL_HSEM_Release
                0x00000000       0x10 CM4/TouchGFX/build/STM32H745I_DISCO/Drivers/STM32H7xx_HAL_Driver/Src/stm32h7xx_hal_hsem.o
 .text.HAL_HSEM_ReleaseAll
                0x00000000       0x14 CM4/TouchGFX/build/STM32H745I_DISCO/Drivers/STM32H7xx_HAL_Driver/Src/stm32h7xx_hal_hsem.o
 .text.HAL_HSEM_SetClearKey
                0x00000000       0x18 CM4/TouchGFX/build/STM32H745I_DISCO/Drivers/STM32H7xx_HAL_Driver/Src/stm32h7xx_hal_hsem.o
 .text.HAL_HSEM_GetClearKey
                0x00000000       0x10 CM4/TouchGFX/build/STM32H745I_DISCO/Drivers/STM32H7xx_HAL_Driver/Src/stm32h7xx_hal_hsem.o
 .text.HAL_HSEM_DeactivateNotification
                0x00000000       0x10 CM4/TouchGFX/build/STM32H745I_DISCO/Drivers/STM32H7xx_HAL_Driver/Src/stm32h7xx_hal_hsem.o
 .text.HAL_HSEM_FreeCallback
                0x00000000        0x2 CM4/TouchGFX/build/STM32H745I_DISCO/Drivers/STM32H7xx_HAL_Driver/Src/stm32h7xx_hal_hsem.o
 .text.HAL_HSEM_IRQHandler
                0x00000000       0x1c CM4/TouchGFX/build/STM32H745I_DISCO/Drivers/STM32H7xx_HAL_Driver/Src/stm32h7xx_hal_hsem.o
 .text          0x00000000        0x0 CM4/TouchGFX/build/STM32H745I_DISCO/Drivers/STM32H7xx_HAL_Driver/Src/stm32h7xx_hal_i2c.o
 .data          0x00000000        0x0 CM4/TouchGFX/build/STM32H745I_DISCO/Drivers/STM32H7xx_HAL_Driver/Src/stm32h7xx_hal_i2c.o
 .bss           0x00000000        0x0 CM4/TouchGFX/build/STM32H745I_DISCO/Drivers/STM32H7xx_HAL_Driver/Src/stm32h7xx_hal_i2c.o
 .text.I2C_Flush_TXDR
                0x00000000       0x1c CM4/TouchGFX/build/STM32H745I_DISCO/Drivers/STM32H7xx_HAL_Driver/Src/stm32h7xx_hal_i2c.o
 .text.I2C_TransferConfig
                0x00000000       0x28 CM4/TouchGFX/build/STM32H745I_DISCO/Drivers/STM32H7xx_HAL_Driver/Src/stm32h7xx_hal_i2c.o
 .text.I2C_Enable_IRQ
                0x00000000       0x68 CM4/TouchGFX/build/STM32H745I_DISCO/Drivers/STM32H7xx_HAL_Driver/Src/stm32h7xx_hal_i2c.o
 .text.I2C_Disable_IRQ
                0x00000000       0x42 CM4/TouchGFX/build/STM32H745I_DISCO/Drivers/STM32H7xx_HAL_Driver/Src/stm32h7xx_hal_i2c.o
 .text.I2C_ConvertOtherXferOptions
                0x00000000       0x1a CM4/TouchGFX/build/STM32H745I_DISCO/Drivers/STM32H7xx_HAL_Driver/Src/stm32h7xx_hal_i2c.o
 .text.I2C_IsAcknowledgeFailed
                0x00000000       0x7a CM4/TouchGFX/build/STM32H745I_DISCO/Drivers/STM32H7xx_HAL_Driver/Src/stm32h7xx_hal_i2c.o
 .text.I2C_WaitOnRXNEFlagUntilTimeout
                0x00000000       0x7e CM4/TouchGFX/build/STM32H745I_DISCO/Drivers/STM32H7xx_HAL_Driver/Src/stm32h7xx_hal_i2c.o
 .text.I2C_WaitOnSTOPFlagUntilTimeout
                0x00000000       0x4a CM4/TouchGFX/build/STM32H745I_DISCO/Drivers/STM32H7xx_HAL_Driver/Src/stm32h7xx_hal_i2c.o
 .text.I2C_WaitOnFlagUntilTimeout
                0x00000000       0x54 CM4/TouchGFX/build/STM32H745I_DISCO/Drivers/STM32H7xx_HAL_Driver/Src/stm32h7xx_hal_i2c.o
 .text.I2C_WaitOnTXISFlagUntilTimeout
                0x00000000       0x4e CM4/TouchGFX/build/STM32H745I_DISCO/Drivers/STM32H7xx_HAL_Driver/Src/stm32h7xx_hal_i2c.o
 .text.I2C_RequestMemoryWrite
                0x00000000       0x64 CM4/TouchGFX/build/STM32H745I_DISCO/Drivers/STM32H7xx_HAL_Driver/Src/stm32h7xx_hal_i2c.o
 .text.I2C_RequestMemoryRead
                0x00000000       0x64 CM4/TouchGFX/build/STM32H745I_DISCO/Drivers/STM32H7xx_HAL_Driver/Src/stm32h7xx_hal_i2c.o
 .text.HAL_I2C_MspInit
                0x00000000        0x2 CM4/TouchGFX/build/STM32H745I_DISCO/Drivers/STM32H7xx_HAL_Driver/Src/stm32h7xx_hal_i2c.o
 .text.HAL_I2C_Init
                0x00000000       0xa2 CM4/TouchGFX/build/STM32H745I_DISCO/Drivers/STM32H7xx_HAL_Driver/Src/stm32h7xx_hal_i2c.o
 .text.HAL_I2C_MspDeInit
                0x00000000        0x2 CM4/TouchGFX/build/STM32H745I_DISCO/Drivers/STM32H7xx_HAL_Driver/Src/stm32h7xx_hal_i2c.o
 .text.HAL_I2C_DeInit
                0x00000000       0x32 CM4/TouchGFX/build/STM32H745I_DISCO/Drivers/STM32H7xx_HAL_Driver/Src/stm32h7xx_hal_i2c.o
 .text.HAL_I2C_Master_Transmit
                0x00000000      0x124 CM4/TouchGFX/build/STM32H745I_DISCO/Drivers/STM32H7xx_HAL_Driver/Src/stm32h7xx_hal_i2c.o
 .text.HAL_I2C_Master_Receive
                0x00000000      0x124 CM4/TouchGFX/build/STM32H745I_DISCO/Drivers/STM32H7xx_HAL_Driver/Src/stm32h7xx_hal_i2c.o
 .text.HAL_I2C_Slave_Transmit
                0x00000000      0x13a CM4/TouchGFX/build/STM32H745I_DISCO/Drivers/STM32H7xx_HAL_Driver/Src/stm32h7xx_hal_i2c.o
 .text.HAL_I2C_Slave_Receive
                0x00000000      0x12c CM4/TouchGFX/build/STM32H745I_DISCO/Drivers/STM32H7xx_HAL_Driver/Src/stm32h7xx_hal_i2c.o
 .text.HAL_I2C_Master_Transmit_IT
                0x00000000       0x88 CM4/TouchGFX/build/STM32H745I_DISCO/Drivers/STM32H7xx_HAL_Driver/Src/stm32h7xx_hal_i2c.o
 .text.HAL_I2C_Master_Receive_IT
                0x00000000       0x88 CM4/TouchGFX/build/STM32H745I_DISCO/Drivers/STM32H7xx_HAL_Driver/Src/stm32h7xx_hal_i2c.o
 .text.HAL_I2C_Slave_Transmit_IT
                0x00000000       0x58 CM4/TouchGFX/build/STM32H745I_DISCO/Drivers/STM32H7xx_HAL_Driver/Src/stm32h7xx_hal_i2c.o
 .text.HAL_I2C_Slave_Receive_IT
                0x00000000       0x58 CM4/TouchGFX/build/STM32H745I_DISCO/Drivers/STM32H7xx_HAL_Driver/Src/stm32h7xx_hal_i2c.o
 .text.HAL_I2C_Master_Transmit_DMA
                0x00000000      0x12c CM4/TouchGFX/build/STM32H745I_DISCO/Drivers/STM32H7xx_HAL_Driver/Src/stm32h7xx_hal_i2c.o
 .text.HAL_I2C_Master_Receive_DMA
                0x00000000      0x12c CM4/TouchGFX/build/STM32H745I_DISCO/Drivers/STM32H7xx_HAL_Driver/Src/stm32h7xx_hal_i2c.o
 .text.HAL_I2C_Slave_Transmit_DMA
                0x00000000       0xd0 CM4/TouchGFX/build/STM32H745I_DISCO/Drivers/STM32H7xx_HAL_Driver/Src/stm32h7xx_hal_i2c.o
 .text.HAL_I2C_Slave_Receive_DMA
                0x00000000       0xd4 CM4/TouchGFX/build/STM32H745I_DISCO/Drivers/STM32H7xx_HAL_Driver/Src/stm32h7xx_hal_i2c.o
 .text.HAL_I2C_Mem_Write
                0x00000000      0x168 CM4/TouchGFX/build/STM32H745I_DISCO/Drivers/STM32H7xx_HAL_Driver/Src/stm32h7xx_hal_i2c.o
 .text.HAL_I2C_Mem_Read
                0x00000000      0x174 CM4/TouchGFX/build/STM32H745I_DISCO/Drivers/STM32H7xx_HAL_Driver/Src/stm32h7xx_hal_i2c.o
 .text.HAL_I2C_Mem_Write_IT
                0x00000000       0xd0 CM4/TouchGFX/build/STM32H745I_DISCO/Drivers/STM32H7xx_HAL_Driver/Src/stm32h7xx_hal_i2c.o
 .text.HAL_I2C_Mem_Read_IT
                0x00000000       0xd4 CM4/TouchGFX/build/STM32H745I_DISCO/Drivers/STM32H7xx_HAL_Driver/Src/stm32h7xx_hal_i2c.o
 .text.HAL_I2C_Mem_Write_DMA
                0x00000000      0x134 CM4/TouchGFX/build/STM32H745I_DISCO/Drivers/STM32H7xx_HAL_Driver/Src/stm32h7xx_hal_i2c.o
 .text.HAL_I2C_Mem_Read_DMA
                0x00000000      0x13c CM4/TouchGFX/build/STM32H745I_DISCO/Drivers/STM32H7xx_HAL_Driver/Src/stm32h7xx_hal_i2c.o
 .text.HAL_I2C_IsDeviceReady
                0x00000000      0x116 CM4/TouchGFX/build/STM32H745I_DISCO/Drivers/STM32H7xx_HAL_Driver/Src/stm32h7xx_hal_i2c.o
 .text.HAL_I2C_Master_Seq_Transmit_IT
                0x00000000       0xa0 CM4/TouchGFX/build/STM32H745I_DISCO/Drivers/STM32H7xx_HAL_Driver/Src/stm32h7xx_hal_i2c.o
 .text.HAL_I2C_Master_Seq_Transmit_DMA
                0x00000000      0x150 CM4/TouchGFX/build/STM32H745I_DISCO/Drivers/STM32H7xx_HAL_Driver/Src/stm32h7xx_hal_i2c.o
 .text.HAL_I2C_Master_Seq_Receive_IT
                0x00000000       0xa0 CM4/TouchGFX/build/STM32H745I_DISCO/Drivers/STM32H7xx_HAL_Driver/Src/stm32h7xx_hal_i2c.o
 .text.HAL_I2C_Master_Seq_Receive_DMA
                0x00000000      0x14c CM4/TouchGFX/build/STM32H745I_DISCO/Drivers/STM32H7xx_HAL_Driver/Src/stm32h7xx_hal_i2c.o
 .text.HAL_I2C_Slave_Seq_Transmit_IT
                0x00000000       0xbc CM4/TouchGFX/build/STM32H745I_DISCO/Drivers/STM32H7xx_HAL_Driver/Src/stm32h7xx_hal_i2c.o
 .text.HAL_I2C_Slave_Seq_Transmit_DMA
                0x00000000      0x168 CM4/TouchGFX/build/STM32H745I_DISCO/Drivers/STM32H7xx_HAL_Driver/Src/stm32h7xx_hal_i2c.o
 .text.HAL_I2C_Slave_Seq_Receive_IT
                0x00000000       0xbc CM4/TouchGFX/build/STM32H745I_DISCO/Drivers/STM32H7xx_HAL_Driver/Src/stm32h7xx_hal_i2c.o
 .text.HAL_I2C_Slave_Seq_Receive_DMA
                0x00000000      0x164 CM4/TouchGFX/build/STM32H745I_DISCO/Drivers/STM32H7xx_HAL_Driver/Src/stm32h7xx_hal_i2c.o
 .text.HAL_I2C_EnableListen_IT
                0x00000000       0x28 CM4/TouchGFX/build/STM32H745I_DISCO/Drivers/STM32H7xx_HAL_Driver/Src/stm32h7xx_hal_i2c.o
 .text.HAL_I2C_DisableListen_IT
                0x00000000       0x38 CM4/TouchGFX/build/STM32H745I_DISCO/Drivers/STM32H7xx_HAL_Driver/Src/stm32h7xx_hal_i2c.o
 .text.HAL_I2C_Master_Abort_IT
                0x00000000       0x78 CM4/TouchGFX/build/STM32H745I_DISCO/Drivers/STM32H7xx_HAL_Driver/Src/stm32h7xx_hal_i2c.o
 .text.HAL_I2C_EV_IRQHandler
                0x00000000        0xe CM4/TouchGFX/build/STM32H745I_DISCO/Drivers/STM32H7xx_HAL_Driver/Src/stm32h7xx_hal_i2c.o
 .text.HAL_I2C_MasterTxCpltCallback
                0x00000000        0x2 CM4/TouchGFX/build/STM32H745I_DISCO/Drivers/STM32H7xx_HAL_Driver/Src/stm32h7xx_hal_i2c.o
 .text.HAL_I2C_MasterRxCpltCallback
                0x00000000        0x2 CM4/TouchGFX/build/STM32H745I_DISCO/Drivers/STM32H7xx_HAL_Driver/Src/stm32h7xx_hal_i2c.o
 .text.I2C_ITMasterSeqCplt
                0x00000000       0x44 CM4/TouchGFX/build/STM32H745I_DISCO/Drivers/STM32H7xx_HAL_Driver/Src/stm32h7xx_hal_i2c.o
 .text.HAL_I2C_SlaveTxCpltCallback
                0x00000000        0x2 CM4/TouchGFX/build/STM32H745I_DISCO/Drivers/STM32H7xx_HAL_Driver/Src/stm32h7xx_hal_i2c.o
 .text.HAL_I2C_SlaveRxCpltCallback
                0x00000000        0x2 CM4/TouchGFX/build/STM32H745I_DISCO/Drivers/STM32H7xx_HAL_Driver/Src/stm32h7xx_hal_i2c.o
 .text.I2C_ITSlaveSeqCplt
                0x00000000       0x72 CM4/TouchGFX/build/STM32H745I_DISCO/Drivers/STM32H7xx_HAL_Driver/Src/stm32h7xx_hal_i2c.o
 .text.I2C_DMASlaveTransmitCplt
                0x00000000       0x1a CM4/TouchGFX/build/STM32H745I_DISCO/Drivers/STM32H7xx_HAL_Driver/Src/stm32h7xx_hal_i2c.o
 .text.I2C_DMASlaveReceiveCplt
                0x00000000       0x70 CM4/TouchGFX/build/STM32H745I_DISCO/Drivers/STM32H7xx_HAL_Driver/Src/stm32h7xx_hal_i2c.o
 .text.HAL_I2C_AddrCallback
                0x00000000        0x2 CM4/TouchGFX/build/STM32H745I_DISCO/Drivers/STM32H7xx_HAL_Driver/Src/stm32h7xx_hal_i2c.o
 .text.I2C_ITAddrCplt.isra.9
                0x00000000       0x8c CM4/TouchGFX/build/STM32H745I_DISCO/Drivers/STM32H7xx_HAL_Driver/Src/stm32h7xx_hal_i2c.o
 .text.HAL_I2C_ListenCpltCallback
                0x00000000        0x2 CM4/TouchGFX/build/STM32H745I_DISCO/Drivers/STM32H7xx_HAL_Driver/Src/stm32h7xx_hal_i2c.o
 .text.I2C_ITListenCplt
                0x00000000       0x64 CM4/TouchGFX/build/STM32H745I_DISCO/Drivers/STM32H7xx_HAL_Driver/Src/stm32h7xx_hal_i2c.o
 .text.HAL_I2C_MemTxCpltCallback
                0x00000000        0x2 CM4/TouchGFX/build/STM32H745I_DISCO/Drivers/STM32H7xx_HAL_Driver/Src/stm32h7xx_hal_i2c.o
 .text.HAL_I2C_MemRxCpltCallback
                0x00000000        0x2 CM4/TouchGFX/build/STM32H745I_DISCO/Drivers/STM32H7xx_HAL_Driver/Src/stm32h7xx_hal_i2c.o
 .text.HAL_I2C_ErrorCallback
                0x00000000        0x2 CM4/TouchGFX/build/STM32H745I_DISCO/Drivers/STM32H7xx_HAL_Driver/Src/stm32h7xx_hal_i2c.o
 .text.HAL_I2C_AbortCpltCallback
                0x00000000        0x2 CM4/TouchGFX/build/STM32H745I_DISCO/Drivers/STM32H7xx_HAL_Driver/Src/stm32h7xx_hal_i2c.o
 .text.I2C_TreatErrorCallback
                0x00000000       0x2c CM4/TouchGFX/build/STM32H745I_DISCO/Drivers/STM32H7xx_HAL_Driver/Src/stm32h7xx_hal_i2c.o
 .text.I2C_ITError
                0x00000000       0xe4 CM4/TouchGFX/build/STM32H745I_DISCO/Drivers/STM32H7xx_HAL_Driver/Src/stm32h7xx_hal_i2c.o
 .text.I2C_ITSlaveCplt
                0x00000000      0x170 CM4/TouchGFX/build/STM32H745I_DISCO/Drivers/STM32H7xx_HAL_Driver/Src/stm32h7xx_hal_i2c.o
 .text.I2C_Slave_ISR_IT
                0x00000000      0x112 CM4/TouchGFX/build/STM32H745I_DISCO/Drivers/STM32H7xx_HAL_Driver/Src/stm32h7xx_hal_i2c.o
 .text.I2C_ITMasterCplt
                0x00000000       0xee CM4/TouchGFX/build/STM32H745I_DISCO/Drivers/STM32H7xx_HAL_Driver/Src/stm32h7xx_hal_i2c.o
 .text.I2C_Master_ISR_IT
                0x00000000      0x120 CM4/TouchGFX/build/STM32H745I_DISCO/Drivers/STM32H7xx_HAL_Driver/Src/stm32h7xx_hal_i2c.o
 .text.I2C_Slave_ISR_DMA
                0x00000000      0x190 CM4/TouchGFX/build/STM32H745I_DISCO/Drivers/STM32H7xx_HAL_Driver/Src/stm32h7xx_hal_i2c.o
 .text.I2C_Master_ISR_DMA
                0x00000000      0x102 CM4/TouchGFX/build/STM32H745I_DISCO/Drivers/STM32H7xx_HAL_Driver/Src/stm32h7xx_hal_i2c.o
 .text.I2C_DMAError
                0x00000000       0xe4 CM4/TouchGFX/build/STM32H745I_DISCO/Drivers/STM32H7xx_HAL_Driver/Src/stm32h7xx_hal_i2c.o
 .text.I2C_DMAMasterTransmitCplt
                0x00000000       0x50 CM4/TouchGFX/build/STM32H745I_DISCO/Drivers/STM32H7xx_HAL_Driver/Src/stm32h7xx_hal_i2c.o
 .text.I2C_DMAMasterReceiveCplt
                0x00000000       0x50 CM4/TouchGFX/build/STM32H745I_DISCO/Drivers/STM32H7xx_HAL_Driver/Src/stm32h7xx_hal_i2c.o
 .text.HAL_I2C_ER_IRQHandler
                0x00000000       0x60 CM4/TouchGFX/build/STM32H745I_DISCO/Drivers/STM32H7xx_HAL_Driver/Src/stm32h7xx_hal_i2c.o
 .text.I2C_DMAAbort
                0x00000000       0x16 CM4/TouchGFX/build/STM32H745I_DISCO/Drivers/STM32H7xx_HAL_Driver/Src/stm32h7xx_hal_i2c.o
 .text.HAL_I2C_GetState
                0x00000000        0x6 CM4/TouchGFX/build/STM32H745I_DISCO/Drivers/STM32H7xx_HAL_Driver/Src/stm32h7xx_hal_i2c.o
 .text.HAL_I2C_GetMode
                0x00000000        0x6 CM4/TouchGFX/build/STM32H745I_DISCO/Drivers/STM32H7xx_HAL_Driver/Src/stm32h7xx_hal_i2c.o
 .text.HAL_I2C_GetError
                0x00000000        0x4 CM4/TouchGFX/build/STM32H745I_DISCO/Drivers/STM32H7xx_HAL_Driver/Src/stm32h7xx_hal_i2c.o
 .debug_info    0x00000000     0x42b3 CM4/TouchGFX/build/STM32H745I_DISCO/Drivers/STM32H7xx_HAL_Driver/Src/stm32h7xx_hal_i2c.o
 .debug_abbrev  0x00000000      0x3e2 CM4/TouchGFX/build/STM32H745I_DISCO/Drivers/STM32H7xx_HAL_Driver/Src/stm32h7xx_hal_i2c.o
 .debug_loc     0x00000000     0x369c CM4/TouchGFX/build/STM32H745I_DISCO/Drivers/STM32H7xx_HAL_Driver/Src/stm32h7xx_hal_i2c.o
 .debug_aranges
                0x00000000      0x240 CM4/TouchGFX/build/STM32H745I_DISCO/Drivers/STM32H7xx_HAL_Driver/Src/stm32h7xx_hal_i2c.o
 .debug_ranges  0x00000000      0x278 CM4/TouchGFX/build/STM32H745I_DISCO/Drivers/STM32H7xx_HAL_Driver/Src/stm32h7xx_hal_i2c.o
 .debug_line    0x00000000     0x1c91 CM4/TouchGFX/build/STM32H745I_DISCO/Drivers/STM32H7xx_HAL_Driver/Src/stm32h7xx_hal_i2c.o
 .debug_str     0x00000000     0x17c7 CM4/TouchGFX/build/STM32H745I_DISCO/Drivers/STM32H7xx_HAL_Driver/Src/stm32h7xx_hal_i2c.o
 .comment       0x00000000       0x80 CM4/TouchGFX/build/STM32H745I_DISCO/Drivers/STM32H7xx_HAL_Driver/Src/stm32h7xx_hal_i2c.o
 .debug_frame   0x00000000      0x920 CM4/TouchGFX/build/STM32H745I_DISCO/Drivers/STM32H7xx_HAL_Driver/Src/stm32h7xx_hal_i2c.o
 .ARM.attributes
                0x00000000       0x39 CM4/TouchGFX/build/STM32H745I_DISCO/Drivers/STM32H7xx_HAL_Driver/Src/stm32h7xx_hal_i2c.o
 .text          0x00000000        0x0 CM4/TouchGFX/build/STM32H745I_DISCO/Drivers/STM32H7xx_HAL_Driver/Src/stm32h7xx_hal_i2c_ex.o
 .data          0x00000000        0x0 CM4/TouchGFX/build/STM32H745I_DISCO/Drivers/STM32H7xx_HAL_Driver/Src/stm32h7xx_hal_i2c_ex.o
 .bss           0x00000000        0x0 CM4/TouchGFX/build/STM32H745I_DISCO/Drivers/STM32H7xx_HAL_Driver/Src/stm32h7xx_hal_i2c_ex.o
 .text.HAL_I2CEx_ConfigAnalogFilter
                0x00000000       0x4c CM4/TouchGFX/build/STM32H745I_DISCO/Drivers/STM32H7xx_HAL_Driver/Src/stm32h7xx_hal_i2c_ex.o
 .text.HAL_I2CEx_ConfigDigitalFilter
                0x00000000       0x4a CM4/TouchGFX/build/STM32H745I_DISCO/Drivers/STM32H7xx_HAL_Driver/Src/stm32h7xx_hal_i2c_ex.o
 .text.HAL_I2CEx_EnableWakeUp
                0x00000000       0x44 CM4/TouchGFX/build/STM32H745I_DISCO/Drivers/STM32H7xx_HAL_Driver/Src/stm32h7xx_hal_i2c_ex.o
 .text.HAL_I2CEx_DisableWakeUp
                0x00000000       0x44 CM4/TouchGFX/build/STM32H745I_DISCO/Drivers/STM32H7xx_HAL_Driver/Src/stm32h7xx_hal_i2c_ex.o
 .text.HAL_I2CEx_EnableFastModePlus
                0x00000000       0x30 CM4/TouchGFX/build/STM32H745I_DISCO/Drivers/STM32H7xx_HAL_Driver/Src/stm32h7xx_hal_i2c_ex.o
 .text.HAL_I2CEx_DisableFastModePlus
                0x00000000       0x34 CM4/TouchGFX/build/STM32H745I_DISCO/Drivers/STM32H7xx_HAL_Driver/Src/stm32h7xx_hal_i2c_ex.o
 .debug_info    0x00000000     0x1711 CM4/TouchGFX/build/STM32H745I_DISCO/Drivers/STM32H7xx_HAL_Driver/Src/stm32h7xx_hal_i2c_ex.o
 .debug_abbrev  0x00000000      0x261 CM4/TouchGFX/build/STM32H745I_DISCO/Drivers/STM32H7xx_HAL_Driver/Src/stm32h7xx_hal_i2c_ex.o
 .debug_loc     0x00000000      0x1a0 CM4/TouchGFX/build/STM32H745I_DISCO/Drivers/STM32H7xx_HAL_Driver/Src/stm32h7xx_hal_i2c_ex.o
 .debug_aranges
                0x00000000       0x48 CM4/TouchGFX/build/STM32H745I_DISCO/Drivers/STM32H7xx_HAL_Driver/Src/stm32h7xx_hal_i2c_ex.o
 .debug_ranges  0x00000000       0x68 CM4/TouchGFX/build/STM32H745I_DISCO/Drivers/STM32H7xx_HAL_Driver/Src/stm32h7xx_hal_i2c_ex.o
 .debug_line    0x00000000      0x427 CM4/TouchGFX/build/STM32H745I_DISCO/Drivers/STM32H7xx_HAL_Driver/Src/stm32h7xx_hal_i2c_ex.o
 .debug_str     0x00000000     0x11d1 CM4/TouchGFX/build/STM32H745I_DISCO/Drivers/STM32H7xx_HAL_Driver/Src/stm32h7xx_hal_i2c_ex.o
 .comment       0x00000000       0x80 CM4/TouchGFX/build/STM32H745I_DISCO/Drivers/STM32H7xx_HAL_Driver/Src/stm32h7xx_hal_i2c_ex.o
 .debug_frame   0x00000000       0x90 CM4/TouchGFX/build/STM32H745I_DISCO/Drivers/STM32H7xx_HAL_Driver/Src/stm32h7xx_hal_i2c_ex.o
 .ARM.attributes
                0x00000000       0x39 CM4/TouchGFX/build/STM32H745I_DISCO/Drivers/STM32H7xx_HAL_Driver/Src/stm32h7xx_hal_i2c_ex.o
 .text          0x00000000        0x0 CM4/TouchGFX/build/STM32H745I_DISCO/Drivers/STM32H7xx_HAL_Driver/Src/stm32h7xx_hal_ltdc.o
 .data          0x00000000        0x0 CM4/TouchGFX/build/STM32H745I_DISCO/Drivers/STM32H7xx_HAL_Driver/Src/stm32h7xx_hal_ltdc.o
 .bss           0x00000000        0x0 CM4/TouchGFX/build/STM32H745I_DISCO/Drivers/STM32H7xx_HAL_Driver/Src/stm32h7xx_hal_ltdc.o
 .debug_info    0x00000000      0xa91 CM4/TouchGFX/build/STM32H745I_DISCO/Drivers/STM32H7xx_HAL_Driver/Src/stm32h7xx_hal_ltdc.o
 .debug_abbrev  0x00000000      0x192 CM4/TouchGFX/build/STM32H745I_DISCO/Drivers/STM32H7xx_HAL_Driver/Src/stm32h7xx_hal_ltdc.o
 .debug_aranges
                0x00000000       0x18 CM4/TouchGFX/build/STM32H745I_DISCO/Drivers/STM32H7xx_HAL_Driver/Src/stm32h7xx_hal_ltdc.o
 .debug_line    0x00000000      0x277 CM4/TouchGFX/build/STM32H745I_DISCO/Drivers/STM32H7xx_HAL_Driver/Src/stm32h7xx_hal_ltdc.o
 .debug_str     0x00000000      0x8b0 CM4/TouchGFX/build/STM32H745I_DISCO/Drivers/STM32H7xx_HAL_Driver/Src/stm32h7xx_hal_ltdc.o
 .comment       0x00000000       0x80 CM4/TouchGFX/build/STM32H745I_DISCO/Drivers/STM32H7xx_HAL_Driver/Src/stm32h7xx_hal_ltdc.o
 .ARM.attributes
                0x00000000       0x39 CM4/TouchGFX/build/STM32H745I_DISCO/Drivers/STM32H7xx_HAL_Driver/Src/stm32h7xx_hal_ltdc.o
 .text          0x00000000        0x0 CM4/TouchGFX/build/STM32H745I_DISCO/Drivers/STM32H7xx_HAL_Driver/Src/stm32h7xx_hal_ltdc_ex.o
 .data          0x00000000        0x0 CM4/TouchGFX/build/STM32H745I_DISCO/Drivers/STM32H7xx_HAL_Driver/Src/stm32h7xx_hal_ltdc_ex.o
 .bss           0x00000000        0x0 CM4/TouchGFX/build/STM32H745I_DISCO/Drivers/STM32H7xx_HAL_Driver/Src/stm32h7xx_hal_ltdc_ex.o
 .debug_info    0x00000000      0xa91 CM4/TouchGFX/build/STM32H745I_DISCO/Drivers/STM32H7xx_HAL_Driver/Src/stm32h7xx_hal_ltdc_ex.o
 .debug_abbrev  0x00000000      0x192 CM4/TouchGFX/build/STM32H745I_DISCO/Drivers/STM32H7xx_HAL_Driver/Src/stm32h7xx_hal_ltdc_ex.o
 .debug_aranges
                0x00000000       0x18 CM4/TouchGFX/build/STM32H745I_DISCO/Drivers/STM32H7xx_HAL_Driver/Src/stm32h7xx_hal_ltdc_ex.o
 .debug_line    0x00000000      0x277 CM4/TouchGFX/build/STM32H745I_DISCO/Drivers/STM32H7xx_HAL_Driver/Src/stm32h7xx_hal_ltdc_ex.o
 .debug_str     0x00000000      0x8b3 CM4/TouchGFX/build/STM32H745I_DISCO/Drivers/STM32H7xx_HAL_Driver/Src/stm32h7xx_hal_ltdc_ex.o
 .comment       0x00000000       0x80 CM4/TouchGFX/build/STM32H745I_DISCO/Drivers/STM32H7xx_HAL_Driver/Src/stm32h7xx_hal_ltdc_ex.o
 .ARM.attributes
                0x00000000       0x39 CM4/TouchGFX/build/STM32H745I_DISCO/Drivers/STM32H7xx_HAL_Driver/Src/stm32h7xx_hal_ltdc_ex.o
 .text          0x00000000        0x0 CM4/TouchGFX/build/STM32H745I_DISCO/Drivers/STM32H7xx_HAL_Driver/Src/stm32h7xx_hal_mdma.o
 .data          0x00000000        0x0 CM4/TouchGFX/build/STM32H745I_DISCO/Drivers/STM32H7xx_HAL_Driver/Src/stm32h7xx_hal_mdma.o
 .bss           0x00000000        0x0 CM4/TouchGFX/build/STM32H745I_DISCO/Drivers/STM32H7xx_HAL_Driver/Src/stm32h7xx_hal_mdma.o
 .text.MDMA_SetConfig
                0x00000000       0x54 CM4/TouchGFX/build/STM32H745I_DISCO/Drivers/STM32H7xx_HAL_Driver/Src/stm32h7xx_hal_mdma.o
 .text.HAL_MDMA_Init
                0x00000000       0xe0 CM4/TouchGFX/build/STM32H745I_DISCO/Drivers/STM32H7xx_HAL_Driver/Src/stm32h7xx_hal_mdma.o
 .text.HAL_MDMA_DeInit
                0x00000000       0x3e CM4/TouchGFX/build/STM32H745I_DISCO/Drivers/STM32H7xx_HAL_Driver/Src/stm32h7xx_hal_mdma.o
 .text.HAL_MDMA_ConfigPostRequestMask
                0x00000000       0x58 CM4/TouchGFX/build/STM32H745I_DISCO/Drivers/STM32H7xx_HAL_Driver/Src/stm32h7xx_hal_mdma.o
 .text.HAL_MDMA_RegisterCallback
                0x00000000       0x56 CM4/TouchGFX/build/STM32H745I_DISCO/Drivers/STM32H7xx_HAL_Driver/Src/stm32h7xx_hal_mdma.o
 .text.HAL_MDMA_UnRegisterCallback
                0x00000000       0x62 CM4/TouchGFX/build/STM32H745I_DISCO/Drivers/STM32H7xx_HAL_Driver/Src/stm32h7xx_hal_mdma.o
 .text.HAL_MDMA_LinkedList_CreateNode
                0x00000000       0xde CM4/TouchGFX/build/STM32H745I_DISCO/Drivers/STM32H7xx_HAL_Driver/Src/stm32h7xx_hal_mdma.o
 .text.HAL_MDMA_LinkedList_AddNode
                0x00000000       0xd2 CM4/TouchGFX/build/STM32H745I_DISCO/Drivers/STM32H7xx_HAL_Driver/Src/stm32h7xx_hal_mdma.o
 .text.HAL_MDMA_LinkedList_RemoveNode
                0x00000000       0xba CM4/TouchGFX/build/STM32H745I_DISCO/Drivers/STM32H7xx_HAL_Driver/Src/stm32h7xx_hal_mdma.o
 .text.HAL_MDMA_LinkedList_EnableCircularMode
                0x00000000       0x4a CM4/TouchGFX/build/STM32H745I_DISCO/Drivers/STM32H7xx_HAL_Driver/Src/stm32h7xx_hal_mdma.o
 .text.HAL_MDMA_LinkedList_DisableCircularMode
                0x00000000       0x4c CM4/TouchGFX/build/STM32H745I_DISCO/Drivers/STM32H7xx_HAL_Driver/Src/stm32h7xx_hal_mdma.o
 .text.HAL_MDMA_Start
                0x00000000       0x66 CM4/TouchGFX/build/STM32H745I_DISCO/Drivers/STM32H7xx_HAL_Driver/Src/stm32h7xx_hal_mdma.o
 .text.HAL_MDMA_Start_IT
                0x00000000       0x96 CM4/TouchGFX/build/STM32H745I_DISCO/Drivers/STM32H7xx_HAL_Driver/Src/stm32h7xx_hal_mdma.o
 .text.HAL_MDMA_Abort
                0x00000000       0x6e CM4/TouchGFX/build/STM32H745I_DISCO/Drivers/STM32H7xx_HAL_Driver/Src/stm32h7xx_hal_mdma.o
 .text.HAL_MDMA_Abort_IT
                0x00000000       0x26 CM4/TouchGFX/build/STM32H745I_DISCO/Drivers/STM32H7xx_HAL_Driver/Src/stm32h7xx_hal_mdma.o
 .text.HAL_MDMA_PollForTransfer
                0x00000000       0xe0 CM4/TouchGFX/build/STM32H745I_DISCO/Drivers/STM32H7xx_HAL_Driver/Src/stm32h7xx_hal_mdma.o
 .text.HAL_MDMA_GenerateSWRequest
                0x00000000       0x32 CM4/TouchGFX/build/STM32H745I_DISCO/Drivers/STM32H7xx_HAL_Driver/Src/stm32h7xx_hal_mdma.o
 .text.HAL_MDMA_IRQHandler
                0x00000000      0x170 CM4/TouchGFX/build/STM32H745I_DISCO/Drivers/STM32H7xx_HAL_Driver/Src/stm32h7xx_hal_mdma.o
 .text.HAL_MDMA_GetState
                0x00000000        0x6 CM4/TouchGFX/build/STM32H745I_DISCO/Drivers/STM32H7xx_HAL_Driver/Src/stm32h7xx_hal_mdma.o
 .text.HAL_MDMA_GetError
                0x00000000        0x4 CM4/TouchGFX/build/STM32H745I_DISCO/Drivers/STM32H7xx_HAL_Driver/Src/stm32h7xx_hal_mdma.o
 .debug_info    0x00000000     0x16fa CM4/TouchGFX/build/STM32H745I_DISCO/Drivers/STM32H7xx_HAL_Driver/Src/stm32h7xx_hal_mdma.o
 .debug_abbrev  0x00000000      0x35b CM4/TouchGFX/build/STM32H745I_DISCO/Drivers/STM32H7xx_HAL_Driver/Src/stm32h7xx_hal_mdma.o
 .debug_loc     0x00000000      0xcf4 CM4/TouchGFX/build/STM32H745I_DISCO/Drivers/STM32H7xx_HAL_Driver/Src/stm32h7xx_hal_mdma.o
 .debug_aranges
                0x00000000       0xb8 CM4/TouchGFX/build/STM32H745I_DISCO/Drivers/STM32H7xx_HAL_Driver/Src/stm32h7xx_hal_mdma.o
 .debug_ranges  0x00000000       0xa8 CM4/TouchGFX/build/STM32H745I_DISCO/Drivers/STM32H7xx_HAL_Driver/Src/stm32h7xx_hal_mdma.o
 .debug_line    0x00000000      0x7df CM4/TouchGFX/build/STM32H745I_DISCO/Drivers/STM32H7xx_HAL_Driver/Src/stm32h7xx_hal_mdma.o
 .debug_str     0x00000000     0x10af CM4/TouchGFX/build/STM32H745I_DISCO/Drivers/STM32H7xx_HAL_Driver/Src/stm32h7xx_hal_mdma.o
 .comment       0x00000000       0x80 CM4/TouchGFX/build/STM32H745I_DISCO/Drivers/STM32H7xx_HAL_Driver/Src/stm32h7xx_hal_mdma.o
 .debug_frame   0x00000000      0x200 CM4/TouchGFX/build/STM32H745I_DISCO/Drivers/STM32H7xx_HAL_Driver/Src/stm32h7xx_hal_mdma.o
 .ARM.attributes
                0x00000000       0x39 CM4/TouchGFX/build/STM32H745I_DISCO/Drivers/STM32H7xx_HAL_Driver/Src/stm32h7xx_hal_mdma.o
 .text          0x00000000        0x0 CM4/TouchGFX/build/STM32H745I_DISCO/Drivers/STM32H7xx_HAL_Driver/Src/stm32h7xx_hal_pwr.o
 .data          0x00000000        0x0 CM4/TouchGFX/build/STM32H745I_DISCO/Drivers/STM32H7xx_HAL_Driver/Src/stm32h7xx_hal_pwr.o
 .bss           0x00000000        0x0 CM4/TouchGFX/build/STM32H745I_DISCO/Drivers/STM32H7xx_HAL_Driver/Src/stm32h7xx_hal_pwr.o
 .text.HAL_PWR_DeInit
                0x00000000        0x2 CM4/TouchGFX/build/STM32H745I_DISCO/Drivers/STM32H7xx_HAL_Driver/Src/stm32h7xx_hal_pwr.o
 .text.HAL_PWR_EnableBkUpAccess
                0x00000000       0x10 CM4/TouchGFX/build/STM32H745I_DISCO/Drivers/STM32H7xx_HAL_Driver/Src/stm32h7xx_hal_pwr.o
 .text.HAL_PWR_DisableBkUpAccess
                0x00000000       0x10 CM4/TouchGFX/build/STM32H745I_DISCO/Drivers/STM32H7xx_HAL_Driver/Src/stm32h7xx_hal_pwr.o
 .text.HAL_PWR_ConfigPVD
                0x00000000       0x48 CM4/TouchGFX/build/STM32H745I_DISCO/Drivers/STM32H7xx_HAL_Driver/Src/stm32h7xx_hal_pwr.o
 .text.HAL_PWR_EnablePVD
                0x00000000       0x10 CM4/TouchGFX/build/STM32H745I_DISCO/Drivers/STM32H7xx_HAL_Driver/Src/stm32h7xx_hal_pwr.o
 .text.HAL_PWR_DisablePVD
                0x00000000       0x10 CM4/TouchGFX/build/STM32H745I_DISCO/Drivers/STM32H7xx_HAL_Driver/Src/stm32h7xx_hal_pwr.o
 .text.HAL_PWR_EnableWakeUpPin
                0x00000000       0x18 CM4/TouchGFX/build/STM32H745I_DISCO/Drivers/STM32H7xx_HAL_Driver/Src/stm32h7xx_hal_pwr.o
 .text.HAL_PWR_DisableWakeUpPin
                0x00000000       0x14 CM4/TouchGFX/build/STM32H745I_DISCO/Drivers/STM32H7xx_HAL_Driver/Src/stm32h7xx_hal_pwr.o
 .text.HAL_PWR_EnterSLEEPMode
                0x00000000       0x1c CM4/TouchGFX/build/STM32H745I_DISCO/Drivers/STM32H7xx_HAL_Driver/Src/stm32h7xx_hal_pwr.o
 .text.HAL_PWR_EnterSTOPMode
                0x00000000       0x54 CM4/TouchGFX/build/STM32H745I_DISCO/Drivers/STM32H7xx_HAL_Driver/Src/stm32h7xx_hal_pwr.o
 .text.HAL_PWR_EnterSTANDBYMode
                0x00000000       0x48 CM4/TouchGFX/build/STM32H745I_DISCO/Drivers/STM32H7xx_HAL_Driver/Src/stm32h7xx_hal_pwr.o
 .text.HAL_PWR_EnableSleepOnExit
                0x00000000       0x10 CM4/TouchGFX/build/STM32H745I_DISCO/Drivers/STM32H7xx_HAL_Driver/Src/stm32h7xx_hal_pwr.o
 .text.HAL_PWR_DisableSleepOnExit
                0x00000000       0x10 CM4/TouchGFX/build/STM32H745I_DISCO/Drivers/STM32H7xx_HAL_Driver/Src/stm32h7xx_hal_pwr.o
 .text.HAL_PWR_EnableSEVOnPend
                0x00000000       0x10 CM4/TouchGFX/build/STM32H745I_DISCO/Drivers/STM32H7xx_HAL_Driver/Src/stm32h7xx_hal_pwr.o
 .text.HAL_PWR_DisableSEVOnPend
                0x00000000       0x10 CM4/TouchGFX/build/STM32H745I_DISCO/Drivers/STM32H7xx_HAL_Driver/Src/stm32h7xx_hal_pwr.o
 .text.HAL_PWR_PVDCallback
                0x00000000        0x2 CM4/TouchGFX/build/STM32H745I_DISCO/Drivers/STM32H7xx_HAL_Driver/Src/stm32h7xx_hal_pwr.o
 .text.HAL_PWR_PVD_IRQHandler
                0x00000000       0x40 CM4/TouchGFX/build/STM32H745I_DISCO/Drivers/STM32H7xx_HAL_Driver/Src/stm32h7xx_hal_pwr.o
 .debug_info    0x00000000     0x1269 CM4/TouchGFX/build/STM32H745I_DISCO/Drivers/STM32H7xx_HAL_Driver/Src/stm32h7xx_hal_pwr.o
 .debug_abbrev  0x00000000      0x245 CM4/TouchGFX/build/STM32H745I_DISCO/Drivers/STM32H7xx_HAL_Driver/Src/stm32h7xx_hal_pwr.o
 .debug_loc     0x00000000       0x84 CM4/TouchGFX/build/STM32H745I_DISCO/Drivers/STM32H7xx_HAL_Driver/Src/stm32h7xx_hal_pwr.o
 .debug_aranges
                0x00000000       0xa0 CM4/TouchGFX/build/STM32H745I_DISCO/Drivers/STM32H7xx_HAL_Driver/Src/stm32h7xx_hal_pwr.o
 .debug_ranges  0x00000000       0x90 CM4/TouchGFX/build/STM32H745I_DISCO/Drivers/STM32H7xx_HAL_Driver/Src/stm32h7xx_hal_pwr.o
 .debug_line    0x00000000      0x48c CM4/TouchGFX/build/STM32H745I_DISCO/Drivers/STM32H7xx_HAL_Driver/Src/stm32h7xx_hal_pwr.o
 .debug_str     0x00000000      0xc92 CM4/TouchGFX/build/STM32H745I_DISCO/Drivers/STM32H7xx_HAL_Driver/Src/stm32h7xx_hal_pwr.o
 .comment       0x00000000       0x80 CM4/TouchGFX/build/STM32H745I_DISCO/Drivers/STM32H7xx_HAL_Driver/Src/stm32h7xx_hal_pwr.o
 .debug_frame   0x00000000      0x13c CM4/TouchGFX/build/STM32H745I_DISCO/Drivers/STM32H7xx_HAL_Driver/Src/stm32h7xx_hal_pwr.o
 .ARM.attributes
                0x00000000       0x39 CM4/TouchGFX/build/STM32H745I_DISCO/Drivers/STM32H7xx_HAL_Driver/Src/stm32h7xx_hal_pwr.o
 .text          0x00000000        0x0 CM4/TouchGFX/build/STM32H745I_DISCO/Drivers/STM32H7xx_HAL_Driver/Src/stm32h7xx_hal_pwr_ex.o
 .data          0x00000000        0x0 CM4/TouchGFX/build/STM32H745I_DISCO/Drivers/STM32H7xx_HAL_Driver/Src/stm32h7xx_hal_pwr_ex.o
 .bss           0x00000000        0x0 CM4/TouchGFX/build/STM32H745I_DISCO/Drivers/STM32H7xx_HAL_Driver/Src/stm32h7xx_hal_pwr_ex.o
 .text.HAL_PWREx_ConfigSupply
                0x00000000       0x78 CM4/TouchGFX/build/STM32H745I_DISCO/Drivers/STM32H7xx_HAL_Driver/Src/stm32h7xx_hal_pwr_ex.o
 .text.HAL_PWREx_GetSupplyConfig
                0x00000000       0x10 CM4/TouchGFX/build/STM32H745I_DISCO/Drivers/STM32H7xx_HAL_Driver/Src/stm32h7xx_hal_pwr_ex.o
 .text.HAL_PWREx_ControlVoltageScaling
                0x00000000       0xb4 CM4/TouchGFX/build/STM32H745I_DISCO/Drivers/STM32H7xx_HAL_Driver/Src/stm32h7xx_hal_pwr_ex.o
 .text.HAL_PWREx_GetVoltageRange
                0x00000000       0x10 CM4/TouchGFX/build/STM32H745I_DISCO/Drivers/STM32H7xx_HAL_Driver/Src/stm32h7xx_hal_pwr_ex.o
 .text.HAL_PWREx_ControlStopModeVoltageScaling
                0x00000000       0x14 CM4/TouchGFX/build/STM32H745I_DISCO/Drivers/STM32H7xx_HAL_Driver/Src/stm32h7xx_hal_pwr_ex.o
 .text.HAL_PWREx_GetStopModeVoltageRange
                0x00000000       0x10 CM4/TouchGFX/build/STM32H745I_DISCO/Drivers/STM32H7xx_HAL_Driver/Src/stm32h7xx_hal_pwr_ex.o
 .text.HAL_PWREx_EnterSTANDBYMode
                0x00000000       0x64 CM4/TouchGFX/build/STM32H745I_DISCO/Drivers/STM32H7xx_HAL_Driver/Src/stm32h7xx_hal_pwr_ex.o
 .text.HAL_PWREx_ConfigD3Domain
                0x00000000       0x14 CM4/TouchGFX/build/STM32H745I_DISCO/Drivers/STM32H7xx_HAL_Driver/Src/stm32h7xx_hal_pwr_ex.o
 .text.HAL_PWREx_ClearDomainFlags
                0x00000000       0x28 CM4/TouchGFX/build/STM32H745I_DISCO/Drivers/STM32H7xx_HAL_Driver/Src/stm32h7xx_hal_pwr_ex.o
 .text.HAL_PWREx_HoldCore
                0x00000000       0x34 CM4/TouchGFX/build/STM32H745I_DISCO/Drivers/STM32H7xx_HAL_Driver/Src/stm32h7xx_hal_pwr_ex.o
 .text.HAL_PWREx_ReleaseCore
                0x00000000       0x20 CM4/TouchGFX/build/STM32H745I_DISCO/Drivers/STM32H7xx_HAL_Driver/Src/stm32h7xx_hal_pwr_ex.o
 .text.HAL_PWREx_EnableFlashPowerDown
                0x00000000       0x10 CM4/TouchGFX/build/STM32H745I_DISCO/Drivers/STM32H7xx_HAL_Driver/Src/stm32h7xx_hal_pwr_ex.o
 .text.HAL_PWREx_DisableFlashPowerDown
                0x00000000       0x10 CM4/TouchGFX/build/STM32H745I_DISCO/Drivers/STM32H7xx_HAL_Driver/Src/stm32h7xx_hal_pwr_ex.o
 .text.HAL_PWREx_EnableWakeUpPin
                0x00000000       0x70 CM4/TouchGFX/build/STM32H745I_DISCO/Drivers/STM32H7xx_HAL_Driver/Src/stm32h7xx_hal_pwr_ex.o
 .text.HAL_PWREx_DisableWakeUpPin
                0x00000000       0x10 CM4/TouchGFX/build/STM32H745I_DISCO/Drivers/STM32H7xx_HAL_Driver/Src/stm32h7xx_hal_pwr_ex.o
 .text.HAL_PWREx_GetWakeupFlag
                0x00000000        0xc CM4/TouchGFX/build/STM32H745I_DISCO/Drivers/STM32H7xx_HAL_Driver/Src/stm32h7xx_hal_pwr_ex.o
 .text.HAL_PWREx_ClearWakeupFlag
                0x00000000       0x18 CM4/TouchGFX/build/STM32H745I_DISCO/Drivers/STM32H7xx_HAL_Driver/Src/stm32h7xx_hal_pwr_ex.o
 .text.HAL_PWREx_WKUP1_Callback
                0x00000000        0x2 CM4/TouchGFX/build/STM32H745I_DISCO/Drivers/STM32H7xx_HAL_Driver/Src/stm32h7xx_hal_pwr_ex.o
 .text.HAL_PWREx_WKUP2_Callback
                0x00000000        0x2 CM4/TouchGFX/build/STM32H745I_DISCO/Drivers/STM32H7xx_HAL_Driver/Src/stm32h7xx_hal_pwr_ex.o
 .text.HAL_PWREx_WKUP3_Callback
                0x00000000        0x2 CM4/TouchGFX/build/STM32H745I_DISCO/Drivers/STM32H7xx_HAL_Driver/Src/stm32h7xx_hal_pwr_ex.o
 .text.HAL_PWREx_WKUP4_Callback
                0x00000000        0x2 CM4/TouchGFX/build/STM32H745I_DISCO/Drivers/STM32H7xx_HAL_Driver/Src/stm32h7xx_hal_pwr_ex.o
 .text.HAL_PWREx_WKUP5_Callback
                0x00000000        0x2 CM4/TouchGFX/build/STM32H745I_DISCO/Drivers/STM32H7xx_HAL_Driver/Src/stm32h7xx_hal_pwr_ex.o
 .text.HAL_PWREx_WKUP6_Callback
                0x00000000        0x2 CM4/TouchGFX/build/STM32H745I_DISCO/Drivers/STM32H7xx_HAL_Driver/Src/stm32h7xx_hal_pwr_ex.o
 .text.HAL_PWREx_WAKEUP_PIN_IRQHandler
                0x00000000       0x7c CM4/TouchGFX/build/STM32H745I_DISCO/Drivers/STM32H7xx_HAL_Driver/Src/stm32h7xx_hal_pwr_ex.o
 .text.HAL_PWREx_EnableBkUpReg
                0x00000000       0x30 CM4/TouchGFX/build/STM32H745I_DISCO/Drivers/STM32H7xx_HAL_Driver/Src/stm32h7xx_hal_pwr_ex.o
 .text.HAL_PWREx_DisableBkUpReg
                0x00000000       0x30 CM4/TouchGFX/build/STM32H745I_DISCO/Drivers/STM32H7xx_HAL_Driver/Src/stm32h7xx_hal_pwr_ex.o
 .text.HAL_PWREx_EnableUSBReg
                0x00000000       0x30 CM4/TouchGFX/build/STM32H745I_DISCO/Drivers/STM32H7xx_HAL_Driver/Src/stm32h7xx_hal_pwr_ex.o
 .text.HAL_PWREx_DisableUSBReg
                0x00000000       0x30 CM4/TouchGFX/build/STM32H745I_DISCO/Drivers/STM32H7xx_HAL_Driver/Src/stm32h7xx_hal_pwr_ex.o
 .text.HAL_PWREx_EnableUSBVoltageDetector
                0x00000000       0x10 CM4/TouchGFX/build/STM32H745I_DISCO/Drivers/STM32H7xx_HAL_Driver/Src/stm32h7xx_hal_pwr_ex.o
 .text.HAL_PWREx_DisableUSBVoltageDetector
                0x00000000       0x10 CM4/TouchGFX/build/STM32H745I_DISCO/Drivers/STM32H7xx_HAL_Driver/Src/stm32h7xx_hal_pwr_ex.o
 .text.HAL_PWREx_EnableBatteryCharging
                0x00000000       0x1c CM4/TouchGFX/build/STM32H745I_DISCO/Drivers/STM32H7xx_HAL_Driver/Src/stm32h7xx_hal_pwr_ex.o
 .text.HAL_PWREx_DisableBatteryCharging
                0x00000000       0x10 CM4/TouchGFX/build/STM32H745I_DISCO/Drivers/STM32H7xx_HAL_Driver/Src/stm32h7xx_hal_pwr_ex.o
 .text.HAL_PWREx_EnableMonitoring
                0x00000000       0x10 CM4/TouchGFX/build/STM32H745I_DISCO/Drivers/STM32H7xx_HAL_Driver/Src/stm32h7xx_hal_pwr_ex.o
 .text.HAL_PWREx_DisableMonitoring
                0x00000000       0x10 CM4/TouchGFX/build/STM32H745I_DISCO/Drivers/STM32H7xx_HAL_Driver/Src/stm32h7xx_hal_pwr_ex.o
 .text.HAL_PWREx_GetTemperatureLevel
                0x00000000       0x20 CM4/TouchGFX/build/STM32H745I_DISCO/Drivers/STM32H7xx_HAL_Driver/Src/stm32h7xx_hal_pwr_ex.o
 .text.HAL_PWREx_GetVBATLevel
                0x00000000       0x20 CM4/TouchGFX/build/STM32H745I_DISCO/Drivers/STM32H7xx_HAL_Driver/Src/stm32h7xx_hal_pwr_ex.o
 .text.HAL_PWREx_ConfigAVD
                0x00000000       0x48 CM4/TouchGFX/build/STM32H745I_DISCO/Drivers/STM32H7xx_HAL_Driver/Src/stm32h7xx_hal_pwr_ex.o
 .text.HAL_PWREx_EnableAVD
                0x00000000       0x10 CM4/TouchGFX/build/STM32H745I_DISCO/Drivers/STM32H7xx_HAL_Driver/Src/stm32h7xx_hal_pwr_ex.o
 .text.HAL_PWREx_DisableAVD
                0x00000000       0x10 CM4/TouchGFX/build/STM32H745I_DISCO/Drivers/STM32H7xx_HAL_Driver/Src/stm32h7xx_hal_pwr_ex.o
 .text.HAL_PWREx_AVDCallback
                0x00000000        0x2 CM4/TouchGFX/build/STM32H745I_DISCO/Drivers/STM32H7xx_HAL_Driver/Src/stm32h7xx_hal_pwr_ex.o
 .text.HAL_PWREx_PVD_AVD_IRQHandler
                0x00000000       0x90 CM4/TouchGFX/build/STM32H745I_DISCO/Drivers/STM32H7xx_HAL_Driver/Src/stm32h7xx_hal_pwr_ex.o
 .text          0x00000000        0x0 CM4/TouchGFX/build/STM32H745I_DISCO/Drivers/STM32H7xx_HAL_Driver/Src/stm32h7xx_hal_qspi.o
 .data          0x00000000        0x0 CM4/TouchGFX/build/STM32H745I_DISCO/Drivers/STM32H7xx_HAL_Driver/Src/stm32h7xx_hal_qspi.o
 .bss           0x00000000        0x0 CM4/TouchGFX/build/STM32H745I_DISCO/Drivers/STM32H7xx_HAL_Driver/Src/stm32h7xx_hal_qspi.o
 .debug_info    0x00000000      0xa91 CM4/TouchGFX/build/STM32H745I_DISCO/Drivers/STM32H7xx_HAL_Driver/Src/stm32h7xx_hal_qspi.o
 .debug_abbrev  0x00000000      0x192 CM4/TouchGFX/build/STM32H745I_DISCO/Drivers/STM32H7xx_HAL_Driver/Src/stm32h7xx_hal_qspi.o
 .debug_aranges
                0x00000000       0x18 CM4/TouchGFX/build/STM32H745I_DISCO/Drivers/STM32H7xx_HAL_Driver/Src/stm32h7xx_hal_qspi.o
 .debug_line    0x00000000      0x277 CM4/TouchGFX/build/STM32H745I_DISCO/Drivers/STM32H7xx_HAL_Driver/Src/stm32h7xx_hal_qspi.o
 .debug_str     0x00000000      0x8b0 CM4/TouchGFX/build/STM32H745I_DISCO/Drivers/STM32H7xx_HAL_Driver/Src/stm32h7xx_hal_qspi.o
 .comment       0x00000000       0x80 CM4/TouchGFX/build/STM32H745I_DISCO/Drivers/STM32H7xx_HAL_Driver/Src/stm32h7xx_hal_qspi.o
 .ARM.attributes
                0x00000000       0x39 CM4/TouchGFX/build/STM32H745I_DISCO/Drivers/STM32H7xx_HAL_Driver/Src/stm32h7xx_hal_qspi.o
 .text          0x00000000        0x0 CM4/TouchGFX/build/STM32H745I_DISCO/Drivers/STM32H7xx_HAL_Driver/Src/stm32h7xx_hal_rcc.o
 .data          0x00000000        0x0 CM4/TouchGFX/build/STM32H745I_DISCO/Drivers/STM32H7xx_HAL_Driver/Src/stm32h7xx_hal_rcc.o
 .bss           0x00000000        0x0 CM4/TouchGFX/build/STM32H745I_DISCO/Drivers/STM32H7xx_HAL_Driver/Src/stm32h7xx_hal_rcc.o
 .text.HAL_RCC_DeInit
                0x00000000      0x1ac CM4/TouchGFX/build/STM32H745I_DISCO/Drivers/STM32H7xx_HAL_Driver/Src/stm32h7xx_hal_rcc.o
 .text.HAL_RCC_OscConfig
                0x00000000      0x528 CM4/TouchGFX/build/STM32H745I_DISCO/Drivers/STM32H7xx_HAL_Driver/Src/stm32h7xx_hal_rcc.o
 .text.HAL_RCC_MCOConfig
                0x00000000       0x98 CM4/TouchGFX/build/STM32H745I_DISCO/Drivers/STM32H7xx_HAL_Driver/Src/stm32h7xx_hal_rcc.o
 .text.HAL_RCC_EnableCSS
                0x00000000       0x10 CM4/TouchGFX/build/STM32H745I_DISCO/Drivers/STM32H7xx_HAL_Driver/Src/stm32h7xx_hal_rcc.o
 .text.HAL_RCC_DisableCSS
                0x00000000       0x10 CM4/TouchGFX/build/STM32H745I_DISCO/Drivers/STM32H7xx_HAL_Driver/Src/stm32h7xx_hal_rcc.o
 .text.HAL_RCC_ClockConfig
                0x00000000      0x244 CM4/TouchGFX/build/STM32H745I_DISCO/Drivers/STM32H7xx_HAL_Driver/Src/stm32h7xx_hal_rcc.o
 .text.HAL_RCC_GetHCLKFreq
                0x00000000       0x40 CM4/TouchGFX/build/STM32H745I_DISCO/Drivers/STM32H7xx_HAL_Driver/Src/stm32h7xx_hal_rcc.o
 .text.HAL_RCC_GetPCLK1Freq
                0x00000000       0x24 CM4/TouchGFX/build/STM32H745I_DISCO/Drivers/STM32H7xx_HAL_Driver/Src/stm32h7xx_hal_rcc.o
 .text.HAL_RCC_GetPCLK2Freq
                0x00000000       0x24 CM4/TouchGFX/build/STM32H745I_DISCO/Drivers/STM32H7xx_HAL_Driver/Src/stm32h7xx_hal_rcc.o
 .text.HAL_RCC_GetOscConfig
                0x00000000      0x108 CM4/TouchGFX/build/STM32H745I_DISCO/Drivers/STM32H7xx_HAL_Driver/Src/stm32h7xx_hal_rcc.o
 .text.HAL_RCC_GetClockConfig
                0x00000000       0x54 CM4/TouchGFX/build/STM32H745I_DISCO/Drivers/STM32H7xx_HAL_Driver/Src/stm32h7xx_hal_rcc.o
 .text.HAL_RCC_CSSCallback
                0x00000000        0x2 CM4/TouchGFX/build/STM32H745I_DISCO/Drivers/STM32H7xx_HAL_Driver/Src/stm32h7xx_hal_rcc.o
 .text.HAL_RCC_NMI_IRQHandler
                0x00000000       0x1c CM4/TouchGFX/build/STM32H745I_DISCO/Drivers/STM32H7xx_HAL_Driver/Src/stm32h7xx_hal_rcc.o
 .text          0x00000000        0x0 CM4/TouchGFX/build/STM32H745I_DISCO/Drivers/STM32H7xx_HAL_Driver/Src/stm32h7xx_hal_rcc_ex.o
 .data          0x00000000        0x0 CM4/TouchGFX/build/STM32H745I_DISCO/Drivers/STM32H7xx_HAL_Driver/Src/stm32h7xx_hal_rcc_ex.o
 .bss           0x00000000        0x0 CM4/TouchGFX/build/STM32H745I_DISCO/Drivers/STM32H7xx_HAL_Driver/Src/stm32h7xx_hal_rcc_ex.o
 .text.RCCEx_PLL2_Config
                0x00000000       0xf0 CM4/TouchGFX/build/STM32H745I_DISCO/Drivers/STM32H7xx_HAL_Driver/Src/stm32h7xx_hal_rcc_ex.o
 .text.RCCEx_PLL3_Config
                0x00000000       0xf0 CM4/TouchGFX/build/STM32H745I_DISCO/Drivers/STM32H7xx_HAL_Driver/Src/stm32h7xx_hal_rcc_ex.o
 .text.HAL_RCCEx_PeriphCLKConfig
                0x00000000      0x8d0 CM4/TouchGFX/build/STM32H745I_DISCO/Drivers/STM32H7xx_HAL_Driver/Src/stm32h7xx_hal_rcc_ex.o
 .text.HAL_RCCEx_GetPeriphCLKConfig
                0x00000000      0x198 CM4/TouchGFX/build/STM32H745I_DISCO/Drivers/STM32H7xx_HAL_Driver/Src/stm32h7xx_hal_rcc_ex.o
 .text.HAL_RCCEx_GetD1PCLK1Freq
                0x00000000       0x24 CM4/TouchGFX/build/STM32H745I_DISCO/Drivers/STM32H7xx_HAL_Driver/Src/stm32h7xx_hal_rcc_ex.o
 .text.HAL_RCCEx_GetD3PCLK1Freq
                0x00000000       0x24 CM4/TouchGFX/build/STM32H745I_DISCO/Drivers/STM32H7xx_HAL_Driver/Src/stm32h7xx_hal_rcc_ex.o
 .text.HAL_RCCEx_GetPLL2ClockFreq
                0x00000000      0x14c CM4/TouchGFX/build/STM32H745I_DISCO/Drivers/STM32H7xx_HAL_Driver/Src/stm32h7xx_hal_rcc_ex.o
 .text.HAL_RCCEx_GetPLL3ClockFreq
                0x00000000      0x14c CM4/TouchGFX/build/STM32H745I_DISCO/Drivers/STM32H7xx_HAL_Driver/Src/stm32h7xx_hal_rcc_ex.o
 .text.HAL_RCCEx_GetPLL1ClockFreq
                0x00000000      0x14c CM4/TouchGFX/build/STM32H745I_DISCO/Drivers/STM32H7xx_HAL_Driver/Src/stm32h7xx_hal_rcc_ex.o
 .text.HAL_RCCEx_GetPeriphCLKFreq
                0x00000000      0x2c0 CM4/TouchGFX/build/STM32H745I_DISCO/Drivers/STM32H7xx_HAL_Driver/Src/stm32h7xx_hal_rcc_ex.o
 .text.HAL_RCCEx_GetD1SysClockFreq
                0x00000000       0x44 CM4/TouchGFX/build/STM32H745I_DISCO/Drivers/STM32H7xx_HAL_Driver/Src/stm32h7xx_hal_rcc_ex.o
 .text.HAL_RCCEx_EnableLSECSS
                0x00000000       0x10 CM4/TouchGFX/build/STM32H745I_DISCO/Drivers/STM32H7xx_HAL_Driver/Src/stm32h7xx_hal_rcc_ex.o
 .text.HAL_RCCEx_DisableLSECSS
                0x00000000       0x18 CM4/TouchGFX/build/STM32H745I_DISCO/Drivers/STM32H7xx_HAL_Driver/Src/stm32h7xx_hal_rcc_ex.o
 .text.HAL_RCCEx_EnableLSECSS_IT
                0x00000000       0x30 CM4/TouchGFX/build/STM32H745I_DISCO/Drivers/STM32H7xx_HAL_Driver/Src/stm32h7xx_hal_rcc_ex.o
 .text.HAL_RCCEx_WakeUpStopCLKConfig
                0x00000000       0x14 CM4/TouchGFX/build/STM32H745I_DISCO/Drivers/STM32H7xx_HAL_Driver/Src/stm32h7xx_hal_rcc_ex.o
 .text.HAL_RCCEx_KerWakeUpStopCLKConfig
                0x00000000       0x14 CM4/TouchGFX/build/STM32H745I_DISCO/Drivers/STM32H7xx_HAL_Driver/Src/stm32h7xx_hal_rcc_ex.o
 .text.HAL_RCCEx_EnableBootCore
                0x00000000       0x14 CM4/TouchGFX/build/STM32H745I_DISCO/Drivers/STM32H7xx_HAL_Driver/Src/stm32h7xx_hal_rcc_ex.o
 .text.HAL_RCCEx_WWDGxSysResetConfig
                0x00000000        0x4 CM4/TouchGFX/build/STM32H745I_DISCO/Drivers/STM32H7xx_HAL_Driver/Src/stm32h7xx_hal_rcc_ex.o
 .text.HAL_RCCEx_CRSConfig
                0x00000000       0x6c CM4/TouchGFX/build/STM32H745I_DISCO/Drivers/STM32H7xx_HAL_Driver/Src/stm32h7xx_hal_rcc_ex.o
 .text.HAL_RCCEx_CRSSoftwareSynchronizationGenerate
                0x00000000       0x10 CM4/TouchGFX/build/STM32H745I_DISCO/Drivers/STM32H7xx_HAL_Driver/Src/stm32h7xx_hal_rcc_ex.o
 .text.HAL_RCCEx_CRSGetSynchronizationInfo
                0x00000000       0x24 CM4/TouchGFX/build/STM32H745I_DISCO/Drivers/STM32H7xx_HAL_Driver/Src/stm32h7xx_hal_rcc_ex.o
 .text.HAL_RCCEx_CRSWaitSynchronization
                0x00000000       0x94 CM4/TouchGFX/build/STM32H745I_DISCO/Drivers/STM32H7xx_HAL_Driver/Src/stm32h7xx_hal_rcc_ex.o
 .text.HAL_RCCEx_CRS_SyncOkCallback
                0x00000000        0x2 CM4/TouchGFX/build/STM32H745I_DISCO/Drivers/STM32H7xx_HAL_Driver/Src/stm32h7xx_hal_rcc_ex.o
 .text.HAL_RCCEx_CRS_SyncWarnCallback
                0x00000000        0x2 CM4/TouchGFX/build/STM32H745I_DISCO/Drivers/STM32H7xx_HAL_Driver/Src/stm32h7xx_hal_rcc_ex.o
 .text.HAL_RCCEx_CRS_ExpectedSyncCallback
                0x00000000        0x2 CM4/TouchGFX/build/STM32H745I_DISCO/Drivers/STM32H7xx_HAL_Driver/Src/stm32h7xx_hal_rcc_ex.o
 .text.HAL_RCCEx_CRS_ErrorCallback
                0x00000000        0x2 CM4/TouchGFX/build/STM32H745I_DISCO/Drivers/STM32H7xx_HAL_Driver/Src/stm32h7xx_hal_rcc_ex.o
 .text.HAL_RCCEx_CRS_IRQHandler
                0x00000000       0x7c CM4/TouchGFX/build/STM32H745I_DISCO/Drivers/STM32H7xx_HAL_Driver/Src/stm32h7xx_hal_rcc_ex.o
 .text.HAL_RCCEx_LSECSS_Callback
                0x00000000        0x2 CM4/TouchGFX/build/STM32H745I_DISCO/Drivers/STM32H7xx_HAL_Driver/Src/stm32h7xx_hal_rcc_ex.o
 .text.HAL_RCCEx_LSECSS_IRQHandler
                0x00000000       0x1c CM4/TouchGFX/build/STM32H745I_DISCO/Drivers/STM32H7xx_HAL_Driver/Src/stm32h7xx_hal_rcc_ex.o
 .debug_info    0x00000000     0x21b3 CM4/TouchGFX/build/STM32H745I_DISCO/Drivers/STM32H7xx_HAL_Driver/Src/stm32h7xx_hal_rcc_ex.o
 .debug_abbrev  0x00000000      0x386 CM4/TouchGFX/build/STM32H745I_DISCO/Drivers/STM32H7xx_HAL_Driver/Src/stm32h7xx_hal_rcc_ex.o
 .debug_loc     0x00000000      0xe12 CM4/TouchGFX/build/STM32H745I_DISCO/Drivers/STM32H7xx_HAL_Driver/Src/stm32h7xx_hal_rcc_ex.o
 .debug_aranges
                0x00000000       0xe0 CM4/TouchGFX/build/STM32H745I_DISCO/Drivers/STM32H7xx_HAL_Driver/Src/stm32h7xx_hal_rcc_ex.o
 .debug_ranges  0x00000000      0x100 CM4/TouchGFX/build/STM32H745I_DISCO/Drivers/STM32H7xx_HAL_Driver/Src/stm32h7xx_hal_rcc_ex.o
 .debug_line    0x00000000      0x957 CM4/TouchGFX/build/STM32H745I_DISCO/Drivers/STM32H7xx_HAL_Driver/Src/stm32h7xx_hal_rcc_ex.o
 .debug_str     0x00000000     0x15fd CM4/TouchGFX/build/STM32H745I_DISCO/Drivers/STM32H7xx_HAL_Driver/Src/stm32h7xx_hal_rcc_ex.o
 .comment       0x00000000       0x80 CM4/TouchGFX/build/STM32H745I_DISCO/Drivers/STM32H7xx_HAL_Driver/Src/stm32h7xx_hal_rcc_ex.o
 .debug_frame   0x00000000      0x284 CM4/TouchGFX/build/STM32H745I_DISCO/Drivers/STM32H7xx_HAL_Driver/Src/stm32h7xx_hal_rcc_ex.o
 .ARM.attributes
                0x00000000       0x39 CM4/TouchGFX/build/STM32H745I_DISCO/Drivers/STM32H7xx_HAL_Driver/Src/stm32h7xx_hal_rcc_ex.o
 .text          0x00000000        0x0 CM4/TouchGFX/build/STM32H745I_DISCO/Drivers/STM32H7xx_HAL_Driver/Src/stm32h7xx_hal_sdram.o
 .data          0x00000000        0x0 CM4/TouchGFX/build/STM32H745I_DISCO/Drivers/STM32H7xx_HAL_Driver/Src/stm32h7xx_hal_sdram.o
 .bss           0x00000000        0x0 CM4/TouchGFX/build/STM32H745I_DISCO/Drivers/STM32H7xx_HAL_Driver/Src/stm32h7xx_hal_sdram.o
 .debug_info    0x00000000      0xa91 CM4/TouchGFX/build/STM32H745I_DISCO/Drivers/STM32H7xx_HAL_Driver/Src/stm32h7xx_hal_sdram.o
 .debug_abbrev  0x00000000      0x192 CM4/TouchGFX/build/STM32H745I_DISCO/Drivers/STM32H7xx_HAL_Driver/Src/stm32h7xx_hal_sdram.o
 .debug_aranges
                0x00000000       0x18 CM4/TouchGFX/build/STM32H745I_DISCO/Drivers/STM32H7xx_HAL_Driver/Src/stm32h7xx_hal_sdram.o
 .debug_line    0x00000000      0x277 CM4/TouchGFX/build/STM32H745I_DISCO/Drivers/STM32H7xx_HAL_Driver/Src/stm32h7xx_hal_sdram.o
 .debug_str     0x00000000      0x8b1 CM4/TouchGFX/build/STM32H745I_DISCO/Drivers/STM32H7xx_HAL_Driver/Src/stm32h7xx_hal_sdram.o
 .comment       0x00000000       0x80 CM4/TouchGFX/build/STM32H745I_DISCO/Drivers/STM32H7xx_HAL_Driver/Src/stm32h7xx_hal_sdram.o
 .ARM.attributes
                0x00000000       0x39 CM4/TouchGFX/build/STM32H745I_DISCO/Drivers/STM32H7xx_HAL_Driver/Src/stm32h7xx_hal_sdram.o
 .text          0x00000000        0x0 CM4/TouchGFX/build/STM32H745I_DISCO/Drivers/STM32H7xx_HAL_Driver/Src/stm32h7xx_hal_tim.o
 .data          0x00000000        0x0 CM4/TouchGFX/build/STM32H745I_DISCO/Drivers/STM32H7xx_HAL_Driver/Src/stm32h7xx_hal_tim.o
 .bss           0x00000000        0x0 CM4/TouchGFX/build/STM32H745I_DISCO/Drivers/STM32H7xx_HAL_Driver/Src/stm32h7xx_hal_tim.o
 .debug_info    0x00000000      0xa91 CM4/TouchGFX/build/STM32H745I_DISCO/Drivers/STM32H7xx_HAL_Driver/Src/stm32h7xx_hal_tim.o
 .debug_abbrev  0x00000000      0x192 CM4/TouchGFX/build/STM32H745I_DISCO/Drivers/STM32H7xx_HAL_Driver/Src/stm32h7xx_hal_tim.o
 .debug_aranges
                0x00000000       0x18 CM4/TouchGFX/build/STM32H745I_DISCO/Drivers/STM32H7xx_HAL_Driver/Src/stm32h7xx_hal_tim.o
 .debug_line    0x00000000      0x277 CM4/TouchGFX/build/STM32H745I_DISCO/Drivers/STM32H7xx_HAL_Driver/Src/stm32h7xx_hal_tim.o
 .debug_str     0x00000000      0x8af CM4/TouchGFX/build/STM32H745I_DISCO/Drivers/STM32H7xx_HAL_Driver/Src/stm32h7xx_hal_tim.o
 .comment       0x00000000       0x80 CM4/TouchGFX/build/STM32H745I_DISCO/Drivers/STM32H7xx_HAL_Driver/Src/stm32h7xx_hal_tim.o
 .ARM.attributes
                0x00000000       0x39 CM4/TouchGFX/build/STM32H745I_DISCO/Drivers/STM32H7xx_HAL_Driver/Src/stm32h7xx_hal_tim.o
 .text          0x00000000        0x0 CM4/TouchGFX/build/STM32H745I_DISCO/Drivers/STM32H7xx_HAL_Driver/Src/stm32h7xx_hal_tim_ex.o
 .data          0x00000000        0x0 CM4/TouchGFX/build/STM32H745I_DISCO/Drivers/STM32H7xx_HAL_Driver/Src/stm32h7xx_hal_tim_ex.o
 .bss           0x00000000        0x0 CM4/TouchGFX/build/STM32H745I_DISCO/Drivers/STM32H7xx_HAL_Driver/Src/stm32h7xx_hal_tim_ex.o
 .debug_info    0x00000000      0xa91 CM4/TouchGFX/build/STM32H745I_DISCO/Drivers/STM32H7xx_HAL_Driver/Src/stm32h7xx_hal_tim_ex.o
 .debug_abbrev  0x00000000      0x192 CM4/TouchGFX/build/STM32H745I_DISCO/Drivers/STM32H7xx_HAL_Driver/Src/stm32h7xx_hal_tim_ex.o
 .debug_aranges
                0x00000000       0x18 CM4/TouchGFX/build/STM32H745I_DISCO/Drivers/STM32H7xx_HAL_Driver/Src/stm32h7xx_hal_tim_ex.o
 .debug_line    0x00000000      0x277 CM4/TouchGFX/build/STM32H745I_DISCO/Drivers/STM32H7xx_HAL_Driver/Src/stm32h7xx_hal_tim_ex.o
 .debug_str     0x00000000      0x8b2 CM4/TouchGFX/build/STM32H745I_DISCO/Drivers/STM32H7xx_HAL_Driver/Src/stm32h7xx_hal_tim_ex.o
 .comment       0x00000000       0x80 CM4/TouchGFX/build/STM32H745I_DISCO/Drivers/STM32H7xx_HAL_Driver/Src/stm32h7xx_hal_tim_ex.o
 .ARM.attributes
                0x00000000       0x39 CM4/TouchGFX/build/STM32H745I_DISCO/Drivers/STM32H7xx_HAL_Driver/Src/stm32h7xx_hal_tim_ex.o
 .text          0x00000000        0x0 CM4/TouchGFX/build/STM32H745I_DISCO/Drivers/STM32H7xx_HAL_Driver/Src/stm32h7xx_ll_fmc.o
 .data          0x00000000        0x0 CM4/TouchGFX/build/STM32H745I_DISCO/Drivers/STM32H7xx_HAL_Driver/Src/stm32h7xx_ll_fmc.o
 .bss           0x00000000        0x0 CM4/TouchGFX/build/STM32H745I_DISCO/Drivers/STM32H7xx_HAL_Driver/Src/stm32h7xx_ll_fmc.o
 .debug_info    0x00000000      0xa91 CM4/TouchGFX/build/STM32H745I_DISCO/Drivers/STM32H7xx_HAL_Driver/Src/stm32h7xx_ll_fmc.o
 .debug_abbrev  0x00000000      0x192 CM4/TouchGFX/build/STM32H745I_DISCO/Drivers/STM32H7xx_HAL_Driver/Src/stm32h7xx_ll_fmc.o
 .debug_aranges
                0x00000000       0x18 CM4/TouchGFX/build/STM32H745I_DISCO/Drivers/STM32H7xx_HAL_Driver/Src/stm32h7xx_ll_fmc.o
 .debug_line    0x00000000      0x277 CM4/TouchGFX/build/STM32H745I_DISCO/Drivers/STM32H7xx_HAL_Driver/Src/stm32h7xx_ll_fmc.o
 .debug_str     0x00000000      0x8ae CM4/TouchGFX/build/STM32H745I_DISCO/Drivers/STM32H7xx_HAL_Driver/Src/stm32h7xx_ll_fmc.o
 .comment       0x00000000       0x80 CM4/TouchGFX/build/STM32H745I_DISCO/Drivers/STM32H7xx_HAL_Driver/Src/stm32h7xx_ll_fmc.o
 .ARM.attributes
                0x00000000       0x39 CM4/TouchGFX/build/STM32H745I_DISCO/Drivers/STM32H7xx_HAL_Driver/Src/stm32h7xx_ll_fmc.o
 .text          0x00000000        0x0 CM4/TouchGFX/build/STM32H745I_DISCO/CM4/Core/Src/main.o
 .data          0x00000000        0x0 CM4/TouchGFX/build/STM32H745I_DISCO/CM4/Core/Src/main.o
 .bss           0x00000000        0x0 CM4/TouchGFX/build/STM32H745I_DISCO/CM4/Core/Src/main.o
 .text.Error_Handler
                0x00000000        0x4 CM4/TouchGFX/build/STM32H745I_DISCO/CM4/Core/Src/main.o
 .text          0x00000000        0x0 CM4/TouchGFX/build/STM32H745I_DISCO/CM4/Core/Src/stm32h7xx_it.o
 .data          0x00000000        0x0 CM4/TouchGFX/build/STM32H745I_DISCO/CM4/Core/Src/stm32h7xx_it.o
 .bss           0x00000000        0x0 CM4/TouchGFX/build/STM32H745I_DISCO/CM4/Core/Src/stm32h7xx_it.o
 .text          0x00000000        0x0 CM4/TouchGFX/build/STM32H745I_DISCO/CM4/Core/Src/stm32h7xx_hal_msp.o
 .data          0x00000000        0x0 CM4/TouchGFX/build/STM32H745I_DISCO/CM4/Core/Src/stm32h7xx_hal_msp.o
 .bss           0x00000000        0x0 CM4/TouchGFX/build/STM32H745I_DISCO/CM4/Core/Src/stm32h7xx_hal_msp.o
 .text          0x00000000        0x0 CM4/TouchGFX/build/STM32H745I_DISCO/Common/Src/system_stm32h7xx_dualcore_boot_cm4_cm7.o
 .data          0x00000000        0x0 CM4/TouchGFX/build/STM32H745I_DISCO/Common/Src/system_stm32h7xx_dualcore_boot_cm4_cm7.o
 .bss           0x00000000        0x0 CM4/TouchGFX/build/STM32H745I_DISCO/Common/Src/system_stm32h7xx_dualcore_boot_cm4_cm7.o
 .text.SystemCoreClockUpdate
                0x00000000      0x144 CM4/TouchGFX/build/STM32H745I_DISCO/Common/Src/system_stm32h7xx_dualcore_boot_cm4_cm7.o
 .text          0x00000000       0x14 CM4/TouchGFX/build/STM32H745I_DISCO/gcc/startup_stm32h745xihx_cm4.o
 .data          0x00000000        0x0 CM4/TouchGFX/build/STM32H745I_DISCO/gcc/startup_stm32h745xihx_cm4.o
 .bss           0x00000000        0x0 CM4/TouchGFX/build/STM32H745I_DISCO/gcc/startup_stm32h745xihx_cm4.o
 .text          0x00000000        0x0 a:/touchgfx/4.18.1/env/mingw/msys/1.0/gnu-arm-gcc/bin/../lib/gcc/arm-none-eabi/7.3.1/../../../../arm-none-eabi/lib/thumb/v7e-m/fpv4-sp/hard\libc.a(lib_a-exit.o)
 .data          0x00000000        0x0 a:/touchgfx/4.18.1/env/mingw/msys/1.0/gnu-arm-gcc/bin/../lib/gcc/arm-none-eabi/7.3.1/../../../../arm-none-eabi/lib/thumb/v7e-m/fpv4-sp/hard\libc.a(lib_a-exit.o)
 .bss           0x00000000        0x0 a:/touchgfx/4.18.1/env/mingw/msys/1.0/gnu-arm-gcc/bin/../lib/gcc/arm-none-eabi/7.3.1/../../../../arm-none-eabi/lib/thumb/v7e-m/fpv4-sp/hard\libc.a(lib_a-exit.o)
 .text.exit     0x00000000       0x20 a:/touchgfx/4.18.1/env/mingw/msys/1.0/gnu-arm-gcc/bin/../lib/gcc/arm-none-eabi/7.3.1/../../../../arm-none-eabi/lib/thumb/v7e-m/fpv4-sp/hard\libc.a(lib_a-exit.o)
 .debug_frame   0x00000000       0x28 a:/touchgfx/4.18.1/env/mingw/msys/1.0/gnu-arm-gcc/bin/../lib/gcc/arm-none-eabi/7.3.1/../../../../arm-none-eabi/lib/thumb/v7e-m/fpv4-sp/hard\libc.a(lib_a-exit.o)
 .ARM.attributes
                0x00000000       0x34 a:/touchgfx/4.18.1/env/mingw/msys/1.0/gnu-arm-gcc/bin/../lib/gcc/arm-none-eabi/7.3.1/../../../../arm-none-eabi/lib/thumb/v7e-m/fpv4-sp/hard\libc.a(lib_a-exit.o)
 .text          0x00000000        0x0 a:/touchgfx/4.18.1/env/mingw/msys/1.0/gnu-arm-gcc/bin/../lib/gcc/arm-none-eabi/7.3.1/../../../../arm-none-eabi/lib/thumb/v7e-m/fpv4-sp/hard\libc.a(lib_a-impure.o)
 .data          0x00000000        0x0 a:/touchgfx/4.18.1/env/mingw/msys/1.0/gnu-arm-gcc/bin/../lib/gcc/arm-none-eabi/7.3.1/../../../../arm-none-eabi/lib/thumb/v7e-m/fpv4-sp/hard\libc.a(lib_a-impure.o)
 .bss           0x00000000        0x0 a:/touchgfx/4.18.1/env/mingw/msys/1.0/gnu-arm-gcc/bin/../lib/gcc/arm-none-eabi/7.3.1/../../../../arm-none-eabi/lib/thumb/v7e-m/fpv4-sp/hard\libc.a(lib_a-impure.o)
 .data._impure_ptr
                0x00000000        0x4 a:/touchgfx/4.18.1/env/mingw/msys/1.0/gnu-arm-gcc/bin/../lib/gcc/arm-none-eabi/7.3.1/../../../../arm-none-eabi/lib/thumb/v7e-m/fpv4-sp/hard\libc.a(lib_a-impure.o)
 .text          0x00000000        0x0 a:/touchgfx/4.18.1/env/mingw/msys/1.0/gnu-arm-gcc/bin/../lib/gcc/arm-none-eabi/7.3.1/../../../../arm-none-eabi/lib/thumb/v7e-m/fpv4-sp/hard\libc.a(lib_a-init.o)
 .data          0x00000000        0x0 a:/touchgfx/4.18.1/env/mingw/msys/1.0/gnu-arm-gcc/bin/../lib/gcc/arm-none-eabi/7.3.1/../../../../arm-none-eabi/lib/thumb/v7e-m/fpv4-sp/hard\libc.a(lib_a-init.o)
 .bss           0x00000000        0x0 a:/touchgfx/4.18.1/env/mingw/msys/1.0/gnu-arm-gcc/bin/../lib/gcc/arm-none-eabi/7.3.1/../../../../arm-none-eabi/lib/thumb/v7e-m/fpv4-sp/hard\libc.a(lib_a-init.o)
 .text          0x00000000        0x0 a:/touchgfx/4.18.1/env/mingw/msys/1.0/gnu-arm-gcc/bin/../lib/gcc/arm-none-eabi/7.3.1/../../../../arm-none-eabi/lib/thumb/v7e-m/fpv4-sp/hard\libc.a(lib_a-memset.o)
 .data          0x00000000        0x0 a:/touchgfx/4.18.1/env/mingw/msys/1.0/gnu-arm-gcc/bin/../lib/gcc/arm-none-eabi/7.3.1/../../../../arm-none-eabi/lib/thumb/v7e-m/fpv4-sp/hard\libc.a(lib_a-memset.o)
 .bss           0x00000000        0x0 a:/touchgfx/4.18.1/env/mingw/msys/1.0/gnu-arm-gcc/bin/../lib/gcc/arm-none-eabi/7.3.1/../../../../arm-none-eabi/lib/thumb/v7e-m/fpv4-sp/hard\libc.a(lib_a-memset.o)
 .text.memset   0x00000000       0x94 a:/touchgfx/4.18.1/env/mingw/msys/1.0/gnu-arm-gcc/bin/../lib/gcc/arm-none-eabi/7.3.1/../../../../arm-none-eabi/lib/thumb/v7e-m/fpv4-sp/hard\libc.a(lib_a-memset.o)
 .debug_frame   0x00000000       0x38 a:/touchgfx/4.18.1/env/mingw/msys/1.0/gnu-arm-gcc/bin/../lib/gcc/arm-none-eabi/7.3.1/../../../../arm-none-eabi/lib/thumb/v7e-m/fpv4-sp/hard\libc.a(lib_a-memset.o)
 .ARM.attributes
                0x00000000       0x34 a:/touchgfx/4.18.1/env/mingw/msys/1.0/gnu-arm-gcc/bin/../lib/gcc/arm-none-eabi/7.3.1/../../../../arm-none-eabi/lib/thumb/v7e-m/fpv4-sp/hard\libc.a(lib_a-memset.o)
 .text          0x00000000        0x0 a:/touchgfx/4.18.1/env/mingw/msys/1.0/gnu-arm-gcc/bin/../lib/gcc/arm-none-eabi/7.3.1/../../../../arm-none-eabi/lib/thumb/v7e-m/fpv4-sp/hard\libc.a(lib_a-__call_atexit.o)
 .data          0x00000000        0x0 a:/touchgfx/4.18.1/env/mingw/msys/1.0/gnu-arm-gcc/bin/../lib/gcc/arm-none-eabi/7.3.1/../../../../arm-none-eabi/lib/thumb/v7e-m/fpv4-sp/hard\libc.a(lib_a-__call_atexit.o)
 .bss           0x00000000        0x0 a:/touchgfx/4.18.1/env/mingw/msys/1.0/gnu-arm-gcc/bin/../lib/gcc/arm-none-eabi/7.3.1/../../../../arm-none-eabi/lib/thumb/v7e-m/fpv4-sp/hard\libc.a(lib_a-__call_atexit.o)
 .text.__call_exitprocs
                0x00000000       0xe8 a:/touchgfx/4.18.1/env/mingw/msys/1.0/gnu-arm-gcc/bin/../lib/gcc/arm-none-eabi/7.3.1/../../../../arm-none-eabi/lib/thumb/v7e-m/fpv4-sp/hard\libc.a(lib_a-__call_atexit.o)
 .text          0x00000000        0x0 a:/touchgfx/4.18.1/env/mingw/msys/1.0/gnu-arm-gcc/bin/../lib/gcc/arm-none-eabi/7.3.1/../../../../arm-none-eabi/lib/thumb/v7e-m/fpv4-sp/hard\libc.a(lib_a-atexit.o)
 .data          0x00000000        0x0 a:/touchgfx/4.18.1/env/mingw/msys/1.0/gnu-arm-gcc/bin/../lib/gcc/arm-none-eabi/7.3.1/../../../../arm-none-eabi/lib/thumb/v7e-m/fpv4-sp/hard\libc.a(lib_a-atexit.o)
 .bss           0x00000000        0x0 a:/touchgfx/4.18.1/env/mingw/msys/1.0/gnu-arm-gcc/bin/../lib/gcc/arm-none-eabi/7.3.1/../../../../arm-none-eabi/lib/thumb/v7e-m/fpv4-sp/hard\libc.a(lib_a-atexit.o)
 .text          0x00000000        0x0 a:/touchgfx/4.18.1/env/mingw/msys/1.0/gnu-arm-gcc/bin/../lib/gcc/arm-none-eabi/7.3.1/../../../../arm-none-eabi/lib/thumb/v7e-m/fpv4-sp/hard\libc.a(lib_a-fini.o)
 .data          0x00000000        0x0 a:/touchgfx/4.18.1/env/mingw/msys/1.0/gnu-arm-gcc/bin/../lib/gcc/arm-none-eabi/7.3.1/../../../../arm-none-eabi/lib/thumb/v7e-m/fpv4-sp/hard\libc.a(lib_a-fini.o)
 .bss           0x00000000        0x0 a:/touchgfx/4.18.1/env/mingw/msys/1.0/gnu-arm-gcc/bin/../lib/gcc/arm-none-eabi/7.3.1/../../../../arm-none-eabi/lib/thumb/v7e-m/fpv4-sp/hard\libc.a(lib_a-fini.o)
 .text          0x00000000        0x0 a:/touchgfx/4.18.1/env/mingw/msys/1.0/gnu-arm-gcc/bin/../lib/gcc/arm-none-eabi/7.3.1/../../../../arm-none-eabi/lib/thumb/v7e-m/fpv4-sp/hard\libc.a(lib_a-lock.o)
 .data          0x00000000        0x0 a:/touchgfx/4.18.1/env/mingw/msys/1.0/gnu-arm-gcc/bin/../lib/gcc/arm-none-eabi/7.3.1/../../../../arm-none-eabi/lib/thumb/v7e-m/fpv4-sp/hard\libc.a(lib_a-lock.o)
 .bss           0x00000000        0x0 a:/touchgfx/4.18.1/env/mingw/msys/1.0/gnu-arm-gcc/bin/../lib/gcc/arm-none-eabi/7.3.1/../../../../arm-none-eabi/lib/thumb/v7e-m/fpv4-sp/hard\libc.a(lib_a-lock.o)
 .text.__retarget_lock_init
                0x00000000        0x4 a:/touchgfx/4.18.1/env/mingw/msys/1.0/gnu-arm-gcc/bin/../lib/gcc/arm-none-eabi/7.3.1/../../../../arm-none-eabi/lib/thumb/v7e-m/fpv4-sp/hard\libc.a(lib_a-lock.o)
 .text.__retarget_lock_init_recursive
                0x00000000        0x4 a:/touchgfx/4.18.1/env/mingw/msys/1.0/gnu-arm-gcc/bin/../lib/gcc/arm-none-eabi/7.3.1/../../../../arm-none-eabi/lib/thumb/v7e-m/fpv4-sp/hard\libc.a(lib_a-lock.o)
 .text.__retarget_lock_close
                0x00000000        0x4 a:/touchgfx/4.18.1/env/mingw/msys/1.0/gnu-arm-gcc/bin/../lib/gcc/arm-none-eabi/7.3.1/../../../../arm-none-eabi/lib/thumb/v7e-m/fpv4-sp/hard\libc.a(lib_a-lock.o)
 .text.__retarget_lock_close_recursive
                0x00000000        0x4 a:/touchgfx/4.18.1/env/mingw/msys/1.0/gnu-arm-gcc/bin/../lib/gcc/arm-none-eabi/7.3.1/../../../../arm-none-eabi/lib/thumb/v7e-m/fpv4-sp/hard\libc.a(lib_a-lock.o)
 .text.__retarget_lock_acquire
                0x00000000        0x4 a:/touchgfx/4.18.1/env/mingw/msys/1.0/gnu-arm-gcc/bin/../lib/gcc/arm-none-eabi/7.3.1/../../../../arm-none-eabi/lib/thumb/v7e-m/fpv4-sp/hard\libc.a(lib_a-lock.o)
 .text.__retarget_lock_try_acquire
                0x00000000        0x4 a:/touchgfx/4.18.1/env/mingw/msys/1.0/gnu-arm-gcc/bin/../lib/gcc/arm-none-eabi/7.3.1/../../../../arm-none-eabi/lib/thumb/v7e-m/fpv4-sp/hard\libc.a(lib_a-lock.o)
 .text.__retarget_lock_try_acquire_recursive
                0x00000000        0x4 a:/touchgfx/4.18.1/env/mingw/msys/1.0/gnu-arm-gcc/bin/../lib/gcc/arm-none-eabi/7.3.1/../../../../arm-none-eabi/lib/thumb/v7e-m/fpv4-sp/hard\libc.a(lib_a-lock.o)
 .text.__retarget_lock_release
                0x00000000        0x4 a:/touchgfx/4.18.1/env/mingw/msys/1.0/gnu-arm-gcc/bin/../lib/gcc/arm-none-eabi/7.3.1/../../../../arm-none-eabi/lib/thumb/v7e-m/fpv4-sp/hard\libc.a(lib_a-lock.o)
 .text          0x00000000        0x0 a:/touchgfx/4.18.1/env/mingw/msys/1.0/gnu-arm-gcc/bin/../lib/gcc/arm-none-eabi/7.3.1/../../../../arm-none-eabi/lib/thumb/v7e-m/fpv4-sp/hard\libc.a(lib_a-__atexit.o)
 .data          0x00000000        0x0 a:/touchgfx/4.18.1/env/mingw/msys/1.0/gnu-arm-gcc/bin/../lib/gcc/arm-none-eabi/7.3.1/../../../../arm-none-eabi/lib/thumb/v7e-m/fpv4-sp/hard\libc.a(lib_a-__atexit.o)
 .bss           0x00000000        0x0 a:/touchgfx/4.18.1/env/mingw/msys/1.0/gnu-arm-gcc/bin/../lib/gcc/arm-none-eabi/7.3.1/../../../../arm-none-eabi/lib/thumb/v7e-m/fpv4-sp/hard\libc.a(lib_a-__atexit.o)
 .text          0x00000000        0x0 a:/touchgfx/4.18.1/env/mingw/msys/1.0/gnu-arm-gcc/bin/../lib/gcc/arm-none-eabi/7.3.1/../../../../arm-none-eabi/lib/thumb/v7e-m/fpv4-sp/hard\libnosys.a(_exit.o)
 .data          0x00000000        0x0 a:/touchgfx/4.18.1/env/mingw/msys/1.0/gnu-arm-gcc/bin/../lib/gcc/arm-none-eabi/7.3.1/../../../../arm-none-eabi/lib/thumb/v7e-m/fpv4-sp/hard\libnosys.a(_exit.o)
 .bss           0x00000000        0x0 a:/touchgfx/4.18.1/env/mingw/msys/1.0/gnu-arm-gcc/bin/../lib/gcc/arm-none-eabi/7.3.1/../../../../arm-none-eabi/lib/thumb/v7e-m/fpv4-sp/hard\libnosys.a(_exit.o)
 .text._exit    0x00000000        0x4 a:/touchgfx/4.18.1/env/mingw/msys/1.0/gnu-arm-gcc/bin/../lib/gcc/arm-none-eabi/7.3.1/../../../../arm-none-eabi/lib/thumb/v7e-m/fpv4-sp/hard\libnosys.a(_exit.o)
 .debug_frame   0x00000000       0x20 a:/touchgfx/4.18.1/env/mingw/msys/1.0/gnu-arm-gcc/bin/../lib/gcc/arm-none-eabi/7.3.1/../../../../arm-none-eabi/lib/thumb/v7e-m/fpv4-sp/hard\libnosys.a(_exit.o)
 .ARM.attributes
                0x00000000       0x34 a:/touchgfx/4.18.1/env/mingw/msys/1.0/gnu-arm-gcc/bin/../lib/gcc/arm-none-eabi/7.3.1/../../../../arm-none-eabi/lib/thumb/v7e-m/fpv4-sp/hard\libnosys.a(_exit.o)
 .text          0x00000000        0x0 a:/touchgfx/4.18.1/env/mingw/msys/1.0/gnu-arm-gcc/bin/../lib/gcc/arm-none-eabi/7.3.1/thumb/v7e-m/fpv4-sp/hard/crtend.o
 .data          0x00000000        0x0 a:/touchgfx/4.18.1/env/mingw/msys/1.0/gnu-arm-gcc/bin/../lib/gcc/arm-none-eabi/7.3.1/thumb/v7e-m/fpv4-sp/hard/crtend.o
 .bss           0x00000000        0x0 a:/touchgfx/4.18.1/env/mingw/msys/1.0/gnu-arm-gcc/bin/../lib/gcc/arm-none-eabi/7.3.1/thumb/v7e-m/fpv4-sp/hard/crtend.o
 .eh_frame      0x00000000        0x4 a:/touchgfx/4.18.1/env/mingw/msys/1.0/gnu-arm-gcc/bin/../lib/gcc/arm-none-eabi/7.3.1/thumb/v7e-m/fpv4-sp/hard/crtend.o
 .ARM.attributes
                0x00000000       0x34 a:/touchgfx/4.18.1/env/mingw/msys/1.0/gnu-arm-gcc/bin/../lib/gcc/arm-none-eabi/7.3.1/thumb/v7e-m/fpv4-sp/hard/crtend.o
 .text          0x00000000        0x0 a:/touchgfx/4.18.1/env/mingw/msys/1.0/gnu-arm-gcc/bin/../lib/gcc/arm-none-eabi/7.3.1/thumb/v7e-m/fpv4-sp/hard/crtn.o
 .data          0x00000000        0x0 a:/touchgfx/4.18.1/env/mingw/msys/1.0/gnu-arm-gcc/bin/../lib/gcc/arm-none-eabi/7.3.1/thumb/v7e-m/fpv4-sp/hard/crtn.o
 .bss           0x00000000        0x0 a:/touchgfx/4.18.1/env/mingw/msys/1.0/gnu-arm-gcc/bin/../lib/gcc/arm-none-eabi/7.3.1/thumb/v7e-m/fpv4-sp/hard/crtn.o

Memory Configuration

Name             Origin             Length             Attributes
FLASH            0x08100000         0x00100000         xr
RAM              0x10000000         0x00048000         xrw
*default*        0x00000000         0xffffffff

Linker script and memory map

LOAD a:/touchgfx/4.18.1/env/mingw/msys/1.0/gnu-arm-gcc/bin/../lib/gcc/arm-none-eabi/7.3.1/thumb/v7e-m/fpv4-sp/hard/crti.o
LOAD a:/touchgfx/4.18.1/env/mingw/msys/1.0/gnu-arm-gcc/bin/../lib/gcc/arm-none-eabi/7.3.1/thumb/v7e-m/fpv4-sp/hard/crtbegin.o
LOAD a:/touchgfx/4.18.1/env/mingw/msys/1.0/gnu-arm-gcc/bin/../lib/gcc/arm-none-eabi/7.3.1/../../../../arm-none-eabi/lib/thumb/v7e-m/fpv4-sp/hard/crt0.o
START GROUP
LOAD a:/touchgfx/4.18.1/env/mingw/msys/1.0/gnu-arm-gcc/bin/../lib/gcc/arm-none-eabi/7.3.1/../../../../arm-none-eabi/lib/thumb/v7e-m/fpv4-sp/hard\libstdc++.a
LOAD a:/touchgfx/4.18.1/env/mingw/msys/1.0/gnu-arm-gcc/bin/../lib/gcc/arm-none-eabi/7.3.1/../../../../arm-none-eabi/lib/thumb/v7e-m/fpv4-sp/hard\libsupc++.a
END GROUP
LOAD CM4/TouchGFX/build/STM32H745I_DISCO/Drivers/STM32H7xx_HAL_Driver/Src/stm32h7xx_hal.o
LOAD CM4/TouchGFX/build/STM32H745I_DISCO/Drivers/STM32H7xx_HAL_Driver/Src/stm32h7xx_hal_cortex.o
LOAD CM4/TouchGFX/build/STM32H745I_DISCO/Drivers/STM32H7xx_HAL_Driver/Src/stm32h7xx_hal_crc.o
LOAD CM4/TouchGFX/build/STM32H745I_DISCO/Drivers/STM32H7xx_HAL_Driver/Src/stm32h7xx_hal_crc_ex.o
LOAD CM4/TouchGFX/build/STM32H745I_DISCO/Drivers/STM32H7xx_HAL_Driver/Src/stm32h7xx_hal_dma.o
LOAD CM4/TouchGFX/build/STM32H745I_DISCO/Drivers/STM32H7xx_HAL_Driver/Src/stm32h7xx_hal_dma_ex.o
LOAD CM4/TouchGFX/build/STM32H745I_DISCO/Drivers/STM32H7xx_HAL_Driver/Src/stm32h7xx_hal_dma2d.o
LOAD CM4/TouchGFX/build/STM32H745I_DISCO/Drivers/STM32H7xx_HAL_Driver/Src/stm32h7xx_hal_exti.o
LOAD CM4/TouchGFX/build/STM32H745I_DISCO/Drivers/STM32H7xx_HAL_Driver/Src/stm32h7xx_hal_flash.o
LOAD CM4/TouchGFX/build/STM32H745I_DISCO/Drivers/STM32H7xx_HAL_Driver/Src/stm32h7xx_hal_flash_ex.o
LOAD CM4/TouchGFX/build/STM32H745I_DISCO/Drivers/STM32H7xx_HAL_Driver/Src/stm32h7xx_hal_gpio.o
LOAD CM4/TouchGFX/build/STM32H745I_DISCO/Drivers/STM32H7xx_HAL_Driver/Src/stm32h7xx_hal_hsem.o
LOAD CM4/TouchGFX/build/STM32H745I_DISCO/Drivers/STM32H7xx_HAL_Driver/Src/stm32h7xx_hal_i2c.o
LOAD CM4/TouchGFX/build/STM32H745I_DISCO/Drivers/STM32H7xx_HAL_Driver/Src/stm32h7xx_hal_i2c_ex.o
LOAD CM4/TouchGFX/build/STM32H745I_DISCO/Drivers/STM32H7xx_HAL_Driver/Src/stm32h7xx_hal_ltdc.o
LOAD CM4/TouchGFX/build/STM32H745I_DISCO/Drivers/STM32H7xx_HAL_Driver/Src/stm32h7xx_hal_ltdc_ex.o
LOAD CM4/TouchGFX/build/STM32H745I_DISCO/Drivers/STM32H7xx_HAL_Driver/Src/stm32h7xx_hal_mdma.o
LOAD CM4/TouchGFX/build/STM32H745I_DISCO/Drivers/STM32H7xx_HAL_Driver/Src/stm32h7xx_hal_pwr.o
LOAD CM4/TouchGFX/build/STM32H745I_DISCO/Drivers/STM32H7xx_HAL_Driver/Src/stm32h7xx_hal_pwr_ex.o
LOAD CM4/TouchGFX/build/STM32H745I_DISCO/Drivers/STM32H7xx_HAL_Driver/Src/stm32h7xx_hal_qspi.o
LOAD CM4/TouchGFX/build/STM32H745I_DISCO/Drivers/STM32H7xx_HAL_Driver/Src/stm32h7xx_hal_rcc.o
LOAD CM4/TouchGFX/build/STM32H745I_DISCO/Drivers/STM32H7xx_HAL_Driver/Src/stm32h7xx_hal_rcc_ex.o
LOAD CM4/TouchGFX/build/STM32H745I_DISCO/Drivers/STM32H7xx_HAL_Driver/Src/stm32h7xx_hal_sdram.o
LOAD CM4/TouchGFX/build/STM32H745I_DISCO/Drivers/STM32H7xx_HAL_Driver/Src/stm32h7xx_hal_tim.o
LOAD CM4/TouchGFX/build/STM32H745I_DISCO/Drivers/STM32H7xx_HAL_Driver/Src/stm32h7xx_hal_tim_ex.o
LOAD CM4/TouchGFX/build/STM32H745I_DISCO/Drivers/STM32H7xx_HAL_Driver/Src/stm32h7xx_ll_fmc.o
LOAD CM4/TouchGFX/build/STM32H745I_DISCO/CM4/Core/Src/main.o
LOAD CM4/TouchGFX/build/STM32H745I_DISCO/CM4/Core/Src/stm32h7xx_it.o
LOAD CM4/TouchGFX/build/STM32H745I_DISCO/CM4/Core/Src/stm32h7xx_hal_msp.o
LOAD CM4/TouchGFX/build/STM32H745I_DISCO/Common/Src/system_stm32h7xx_dualcore_boot_cm4_cm7.o
LOAD CM4/TouchGFX/build/STM32H745I_DISCO/gcc/startup_stm32h745xihx_cm4.o
START GROUP
END GROUP
LOAD a:/touchgfx/4.18.1/env/mingw/msys/1.0/gnu-arm-gcc/bin/../lib/gcc/arm-none-eabi/7.3.1/../../../../arm-none-eabi/lib/thumb/v7e-m/fpv4-sp/hard\libstdc++.a
LOAD a:/touchgfx/4.18.1/env/mingw/msys/1.0/gnu-arm-gcc/bin/../lib/gcc/arm-none-eabi/7.3.1/../../../../arm-none-eabi/lib/thumb/v7e-m/fpv4-sp/hard\libm.a
LOAD a:/touchgfx/4.18.1/env/mingw/msys/1.0/gnu-arm-gcc/bin/../lib/gcc/arm-none-eabi/7.3.1/../../../../arm-none-eabi/lib/thumb/v7e-m/fpv4-sp/hard\libc.a
START GROUP
LOAD a:/touchgfx/4.18.1/env/mingw/msys/1.0/gnu-arm-gcc/bin/../lib/gcc/arm-none-eabi/7.3.1/thumb/v7e-m/fpv4-sp/hard\libgcc.a
LOAD a:/touchgfx/4.18.1/env/mingw/msys/1.0/gnu-arm-gcc/bin/../lib/gcc/arm-none-eabi/7.3.1/../../../../arm-none-eabi/lib/thumb/v7e-m/fpv4-sp/hard\libg.a
LOAD a:/touchgfx/4.18.1/env/mingw/msys/1.0/gnu-arm-gcc/bin/../lib/gcc/arm-none-eabi/7.3.1/../../../../arm-none-eabi/lib/thumb/v7e-m/fpv4-sp/hard\libc.a
END GROUP
START GROUP
LOAD a:/touchgfx/4.18.1/env/mingw/msys/1.0/gnu-arm-gcc/bin/../lib/gcc/arm-none-eabi/7.3.1/thumb/v7e-m/fpv4-sp/hard\libgcc.a
LOAD a:/touchgfx/4.18.1/env/mingw/msys/1.0/gnu-arm-gcc/bin/../lib/gcc/arm-none-eabi/7.3.1/../../../../arm-none-eabi/lib/thumb/v7e-m/fpv4-sp/hard\libc.a
LOAD a:/touchgfx/4.18.1/env/mingw/msys/1.0/gnu-arm-gcc/bin/../lib/gcc/arm-none-eabi/7.3.1/../../../../arm-none-eabi/lib/thumb/v7e-m/fpv4-sp/hard\libnosys.a
END GROUP
LOAD a:/touchgfx/4.18.1/env/mingw/msys/1.0/gnu-arm-gcc/bin/../lib/gcc/arm-none-eabi/7.3.1/thumb/v7e-m/fpv4-sp/hard/crtend.o
LOAD a:/touchgfx/4.18.1/env/mingw/msys/1.0/gnu-arm-gcc/bin/../lib/gcc/arm-none-eabi/7.3.1/thumb/v7e-m/fpv4-sp/hard/crtn.o
                0x10048000                _estack = (ORIGIN (RAM) + LENGTH (RAM))
                0x00000200                _Min_Heap_Size = 0x200
                0x00000400                _Min_Stack_Size = 0x400

.isr_vector     0x08100000      0x298
                0x08100000                . = ALIGN (0x4)
 *(.isr_vector)
 .isr_vector    0x08100000      0x298 CM4/TouchGFX/build/STM32H745I_DISCO/gcc/startup_stm32h745xihx_cm4.o
                0x08100000                g_pfnVectors
                0x08100298                . = ALIGN (0x4)

.text           0x08100298      0x680
                0x08100298                . = ALIGN (0x4)
 *(.text)
 .text          0x08100298       0x40 a:/touchgfx/4.18.1/env/mingw/msys/1.0/gnu-arm-gcc/bin/../lib/gcc/arm-none-eabi/7.3.1/thumb/v7e-m/fpv4-sp/hard/crtbegin.o
 *(.text*)
 .text.HAL_InitTick
                0x081002d8       0x4c CM4/TouchGFX/build/STM32H745I_DISCO/Drivers/STM32H7xx_HAL_Driver/Src/stm32h7xx_hal.o
                0x081002d8                HAL_InitTick
 .text.HAL_Init
                0x08100324       0x94 CM4/TouchGFX/build/STM32H745I_DISCO/Drivers/STM32H7xx_HAL_Driver/Src/stm32h7xx_hal.o
                0x08100324                HAL_Init
 .text.HAL_IncTick
                0x081003b8       0x18 CM4/TouchGFX/build/STM32H745I_DISCO/Drivers/STM32H7xx_HAL_Driver/Src/stm32h7xx_hal.o
                0x081003b8                HAL_IncTick
 .text.HAL_NVIC_SetPriorityGrouping
                0x081003d0       0x24 CM4/TouchGFX/build/STM32H745I_DISCO/Drivers/STM32H7xx_HAL_Driver/Src/stm32h7xx_hal_cortex.o
                0x081003d0                HAL_NVIC_SetPriorityGrouping
 .text.HAL_NVIC_SetPriority
                0x081003f4       0x68 CM4/TouchGFX/build/STM32H745I_DISCO/Drivers/STM32H7xx_HAL_Driver/Src/stm32h7xx_hal_cortex.o
                0x081003f4                HAL_NVIC_SetPriority
 .text.HAL_SYSTICK_Config
                0x0810045c       0x2c CM4/TouchGFX/build/STM32H745I_DISCO/Drivers/STM32H7xx_HAL_Driver/Src/stm32h7xx_hal_cortex.o
                0x0810045c                HAL_SYSTICK_Config
 .text.HAL_GetCurrentCPUID
                0x08100488       0x18 CM4/TouchGFX/build/STM32H745I_DISCO/Drivers/STM32H7xx_HAL_Driver/Src/stm32h7xx_hal_cortex.o
                0x08100488                HAL_GetCurrentCPUID
 .text.HAL_HSEM_ActivateNotification
                0x081004a0       0x10 CM4/TouchGFX/build/STM32H745I_DISCO/Drivers/STM32H7xx_HAL_Driver/Src/stm32h7xx_hal_hsem.o
                0x081004a0                HAL_HSEM_ActivateNotification
 .text.HAL_PWREx_EnterSTOPMode
                0x081004b0       0x84 CM4/TouchGFX/build/STM32H745I_DISCO/Drivers/STM32H7xx_HAL_Driver/Src/stm32h7xx_hal_pwr_ex.o
                0x081004b0                HAL_PWREx_EnterSTOPMode
 .text.HAL_PWREx_ClearPendingEvent
                0x08100534       0x12 CM4/TouchGFX/build/STM32H745I_DISCO/Drivers/STM32H7xx_HAL_Driver/Src/stm32h7xx_hal_pwr_ex.o
                0x08100534                HAL_PWREx_ClearPendingEvent
 *fill*         0x08100546        0x2 
 .text.HAL_RCC_GetSysClockFreq
                0x08100548      0x138 CM4/TouchGFX/build/STM32H745I_DISCO/Drivers/STM32H7xx_HAL_Driver/Src/stm32h7xx_hal_rcc.o
                0x08100548                HAL_RCC_GetSysClockFreq
 .text.startup.main
                0x08100680       0x6c CM4/TouchGFX/build/STM32H745I_DISCO/CM4/Core/Src/main.o
                0x08100680                main
 .text.NMI_Handler
                0x081006ec        0x2 CM4/TouchGFX/build/STM32H745I_DISCO/CM4/Core/Src/stm32h7xx_it.o
                0x081006ec                NMI_Handler
 .text.HardFault_Handler
                0x081006ee        0x2 CM4/TouchGFX/build/STM32H745I_DISCO/CM4/Core/Src/stm32h7xx_it.o
                0x081006ee                HardFault_Handler
 .text.MemManage_Handler
                0x081006f0        0x2 CM4/TouchGFX/build/STM32H745I_DISCO/CM4/Core/Src/stm32h7xx_it.o
                0x081006f0                MemManage_Handler
 .text.BusFault_Handler
                0x081006f2        0x2 CM4/TouchGFX/build/STM32H745I_DISCO/CM4/Core/Src/stm32h7xx_it.o
                0x081006f2                BusFault_Handler
 .text.UsageFault_Handler
                0x081006f4        0x2 CM4/TouchGFX/build/STM32H745I_DISCO/CM4/Core/Src/stm32h7xx_it.o
                0x081006f4                UsageFault_Handler
 .text.SVC_Handler
                0x081006f6        0x2 CM4/TouchGFX/build/STM32H745I_DISCO/CM4/Core/Src/stm32h7xx_it.o
                0x081006f6                SVC_Handler
 .text.DebugMon_Handler
                0x081006f8        0x2 CM4/TouchGFX/build/STM32H745I_DISCO/CM4/Core/Src/stm32h7xx_it.o
                0x081006f8                DebugMon_Handler
 .text.PendSV_Handler
                0x081006fa        0x2 CM4/TouchGFX/build/STM32H745I_DISCO/CM4/Core/Src/stm32h7xx_it.o
                0x081006fa                PendSV_Handler
 .text.SysTick_Handler
                0x081006fc        0x4 CM4/TouchGFX/build/STM32H745I_DISCO/CM4/Core/Src/stm32h7xx_it.o
                0x081006fc                SysTick_Handler
 .text.HAL_MspInit
                0x08100700       0x24 CM4/TouchGFX/build/STM32H745I_DISCO/CM4/Core/Src/stm32h7xx_hal_msp.o
                0x08100700                HAL_MspInit
 .text.SystemInit
                0x08100724       0x24 CM4/TouchGFX/build/STM32H745I_DISCO/Common/Src/system_stm32h7xx_dualcore_boot_cm4_cm7.o
                0x08100724                SystemInit
 .text.Reset_Handler
                0x08100748       0x50 CM4/TouchGFX/build/STM32H745I_DISCO/gcc/startup_stm32h745xihx_cm4.o
                0x08100748                Reset_Handler
 .text.Default_Handler
                0x08100798        0x2 CM4/TouchGFX/build/STM32H745I_DISCO/gcc/startup_stm32h745xihx_cm4.o
                0x08100798                RTC_Alarm_IRQHandler
                0x08100798                EXTI2_IRQHandler
                0x08100798                TIM8_CC_IRQHandler
                0x08100798                HRTIM1_Master_IRQHandler
                0x08100798                UART8_IRQHandler
                0x08100798                SPI4_IRQHandler
                0x08100798                TIM1_CC_IRQHandler
                0x08100798                BDMA_Channel6_IRQHandler
                0x08100798                DMA2_Stream5_IRQHandler
                0x08100798                HRTIM1_FLT_IRQHandler
                0x08100798                JPEG_IRQHandler
                0x08100798                DMA1_Stream5_IRQHandler
                0x08100798                BDMA_Channel1_IRQHandler
                0x08100798                HRTIM1_TIMD_IRQHandler
                0x08100798                TAMP_STAMP_IRQHandler
                0x08100798                EXTI3_IRQHandler
                0x08100798                LPTIM4_IRQHandler
                0x08100798                TIM8_TRG_COM_TIM14_IRQHandler
                0x08100798                LPTIM2_IRQHandler
                0x08100798                DFSDM1_FLT1_IRQHandler
                0x08100798                DMAMUX2_OVR_IRQHandler
                0x08100798                TIM8_UP_TIM13_IRQHandler
                0x08100798                I2C3_ER_IRQHandler
                0x08100798                DFSDM1_FLT2_IRQHandler
                0x08100798                MDMA_IRQHandler
                0x08100798                LPTIM3_IRQHandler
                0x08100798                HSEM1_IRQHandler
                0x08100798                EXTI0_IRQHandler
                0x08100798                I2C2_EV_IRQHandler
                0x08100798                DMA1_Stream2_IRQHandler
                0x08100798                FPU_IRQHandler
                0x08100798                OTG_HS_WKUP_IRQHandler
                0x08100798                FDCAN1_IT1_IRQHandler
                0x08100798                LTDC_ER_IRQHandler
                0x08100798                DMA2_Stream2_IRQHandler
                0x08100798                HRTIM1_TIME_IRQHandler
                0x08100798                SPI1_IRQHandler
                0x08100798                TIM6_DAC_IRQHandler
                0x08100798                DCMI_IRQHandler
                0x08100798                HRTIM1_TIMC_IRQHandler
                0x08100798                DMA2_Stream3_IRQHandler
                0x08100798                SAI2_IRQHandler
                0x08100798                DFSDM1_FLT3_IRQHandler
                0x08100798                USART6_IRQHandler
                0x08100798                TIM17_IRQHandler
                0x08100798                USART3_IRQHandler
                0x08100798                BDMA_Channel7_IRQHandler
                0x08100798                LPTIM5_IRQHandler
                0x08100798                UART5_IRQHandler
                0x08100798                ADC3_IRQHandler
                0x08100798                DMA2_Stream0_IRQHandler
                0x08100798                TIM4_IRQHandler
                0x08100798                BDMA_Channel2_IRQHandler
                0x08100798                QUADSPI_IRQHandler
                0x08100798                I2C1_EV_IRQHandler
                0x08100798                DMA1_Stream6_IRQHandler
                0x08100798                DMAMUX1_OVR_IRQHandler
                0x08100798                DMA1_Stream1_IRQHandler
                0x08100798                TIM16_IRQHandler
                0x08100798                UART4_IRQHandler
                0x08100798                BDMA_Channel5_IRQHandler
                0x08100798                TIM3_IRQHandler
                0x08100798                RCC_IRQHandler
                0x08100798                TIM8_BRK_TIM12_IRQHandler
                0x08100798                TIM1_TRG_COM_IRQHandler
                0x08100798                Default_Handler
                0x08100798                ECC_IRQHandler
                0x08100798                CEC_IRQHandler
                0x08100798                EXTI15_10_IRQHandler
                0x08100798                BDMA_Channel0_IRQHandler
                0x08100798                ADC_IRQHandler
                0x08100798                DMA1_Stream7_IRQHandler
                0x08100798                HRTIM1_TIMA_IRQHandler
                0x08100798                SPI5_IRQHandler
                0x08100798                TIM7_IRQHandler
                0x08100798                SDMMC1_IRQHandler
                0x08100798                TIM5_IRQHandler
                0x08100798                DMA2_Stream7_IRQHandler
                0x08100798                TIM15_IRQHandler
                0x08100798                PVD_AVD_IRQHandler
                0x08100798                I2C3_EV_IRQHandler
                0x08100798                EXTI9_5_IRQHandler
                0x08100798                RTC_WKUP_IRQHandler
                0x08100798                LTDC_IRQHandler
                0x08100798                SAI3_IRQHandler
                0x08100798                ETH_WKUP_IRQHandler
                0x08100798                SPDIF_RX_IRQHandler
                0x08100798                SPI2_IRQHandler
                0x08100798                OTG_HS_EP1_IN_IRQHandler
                0x08100798                DMA1_Stream0_IRQHandler
                0x08100798                CRS_IRQHandler
                0x08100798                CM7_SEV_IRQHandler
                0x08100798                EXTI4_IRQHandler
                0x08100798                RNG_IRQHandler
                0x08100798                CM4_SEV_IRQHandler
                0x08100798                HRTIM1_TIMB_IRQHandler
                0x08100798                FDCAN2_IT1_IRQHandler
                0x08100798                ETH_IRQHandler
                0x08100798                TIM1_UP_IRQHandler
                0x08100798                WWDG_RST_IRQHandler
                0x08100798                BDMA_Channel4_IRQHandler
                0x08100798                OTG_HS_EP1_OUT_IRQHandler
                0x08100798                WWDG_IRQHandler
                0x08100798                SPI6_IRQHandler
                0x08100798                MDIOS_IRQHandler
                0x08100798                I2C4_EV_IRQHandler
                0x08100798                FDCAN2_IT0_IRQHandler
                0x08100798                LPUART1_IRQHandler
                0x08100798                FDCAN1_IT0_IRQHandler
                0x08100798                TIM2_IRQHandler
                0x08100798                OTG_FS_WKUP_IRQHandler
                0x08100798                OTG_HS_IRQHandler
                0x08100798                HSEM2_IRQHandler
                0x08100798                DMA2D_IRQHandler
                0x08100798                TIM1_BRK_IRQHandler
                0x08100798                EXTI1_IRQHandler
                0x08100798                SDMMC2_IRQHandler
                0x08100798                OTG_FS_EP1_OUT_IRQHandler
                0x08100798                BDMA_Channel3_IRQHandler
                0x08100798                HOLD_CORE_IRQHandler
                0x08100798                UART7_IRQHandler
                0x08100798                MDIOS_WKUP_IRQHandler
                0x08100798                USART2_IRQHandler
                0x08100798                DFSDM1_FLT0_IRQHandler
                0x08100798                SAI4_IRQHandler
                0x08100798                I2C2_ER_IRQHandler
                0x08100798                DMA2_Stream1_IRQHandler
                0x08100798                FLASH_IRQHandler
                0x08100798                DMA2_Stream4_IRQHandler
                0x08100798                USART1_IRQHandler
                0x08100798                OTG_FS_IRQHandler
                0x08100798                SPI3_IRQHandler
                0x08100798                WAKEUP_PIN_IRQHandler
                0x08100798                DMA1_Stream4_IRQHandler
                0x08100798                OTG_FS_EP1_IN_IRQHandler
                0x08100798                I2C1_ER_IRQHandler
                0x08100798                FMC_IRQHandler
                0x08100798                FDCAN_CAL_IRQHandler
                0x08100798                SWPMI1_IRQHandler
                0x08100798                COMP1_IRQHandler
                0x08100798                LPTIM1_IRQHandler
                0x08100798                I2C4_ER_IRQHandler
                0x08100798                DMA2_Stream6_IRQHandler
                0x08100798                SAI1_IRQHandler
                0x08100798                DMA1_Stream3_IRQHandler
 *fill*         0x0810079a        0x2 
 .text.__libc_init_array
                0x0810079c       0x48 a:/touchgfx/4.18.1/env/mingw/msys/1.0/gnu-arm-gcc/bin/../lib/gcc/arm-none-eabi/7.3.1/../../../../arm-none-eabi/lib/thumb/v7e-m/fpv4-sp/hard\libc.a(lib_a-init.o)
                0x0810079c                __libc_init_array
 .text.startup.register_fini
                0x081007e4       0x14 a:/touchgfx/4.18.1/env/mingw/msys/1.0/gnu-arm-gcc/bin/../lib/gcc/arm-none-eabi/7.3.1/../../../../arm-none-eabi/lib/thumb/v7e-m/fpv4-sp/hard\libc.a(lib_a-__call_atexit.o)
 .text.atexit   0x081007f8        0xc a:/touchgfx/4.18.1/env/mingw/msys/1.0/gnu-arm-gcc/bin/../lib/gcc/arm-none-eabi/7.3.1/../../../../arm-none-eabi/lib/thumb/v7e-m/fpv4-sp/hard\libc.a(lib_a-atexit.o)
                0x081007f8                atexit
 .text.__libc_fini_array
                0x08100804       0x34 a:/touchgfx/4.18.1/env/mingw/msys/1.0/gnu-arm-gcc/bin/../lib/gcc/arm-none-eabi/7.3.1/../../../../arm-none-eabi/lib/thumb/v7e-m/fpv4-sp/hard\libc.a(lib_a-fini.o)
                0x08100804                __libc_fini_array
 .text.__retarget_lock_acquire_recursive
                0x08100838        0x4 a:/touchgfx/4.18.1/env/mingw/msys/1.0/gnu-arm-gcc/bin/../lib/gcc/arm-none-eabi/7.3.1/../../../../arm-none-eabi/lib/thumb/v7e-m/fpv4-sp/hard\libc.a(lib_a-lock.o)
                0x08100838                __retarget_lock_acquire_recursive
 .text.__retarget_lock_release_recursive
                0x0810083c        0x4 a:/touchgfx/4.18.1/env/mingw/msys/1.0/gnu-arm-gcc/bin/../lib/gcc/arm-none-eabi/7.3.1/../../../../arm-none-eabi/lib/thumb/v7e-m/fpv4-sp/hard\libc.a(lib_a-lock.o)
                0x0810083c                __retarget_lock_release_recursive
 .text.__register_exitproc
                0x08100840       0xc0 a:/touchgfx/4.18.1/env/mingw/msys/1.0/gnu-arm-gcc/bin/../lib/gcc/arm-none-eabi/7.3.1/../../../../arm-none-eabi/lib/thumb/v7e-m/fpv4-sp/hard\libc.a(lib_a-__atexit.o)
                0x08100840                __register_exitproc
 *(.glue_7)
 .glue_7        0x08100900        0x0 linker stubs
 *(.glue_7t)
 .glue_7t       0x08100900        0x0 linker stubs
 *(.eh_frame)
 .eh_frame      0x08100900        0x0 a:/touchgfx/4.18.1/env/mingw/msys/1.0/gnu-arm-gcc/bin/../lib/gcc/arm-none-eabi/7.3.1/thumb/v7e-m/fpv4-sp/hard/crtbegin.o
 *(.init)
 .init          0x08100900        0x4 a:/touchgfx/4.18.1/env/mingw/msys/1.0/gnu-arm-gcc/bin/../lib/gcc/arm-none-eabi/7.3.1/thumb/v7e-m/fpv4-sp/hard/crti.o
                0x08100900                _init
 .init          0x08100904        0x8 a:/touchgfx/4.18.1/env/mingw/msys/1.0/gnu-arm-gcc/bin/../lib/gcc/arm-none-eabi/7.3.1/thumb/v7e-m/fpv4-sp/hard/crtn.o
 *(.fini)
 .fini          0x0810090c        0x4 a:/touchgfx/4.18.1/env/mingw/msys/1.0/gnu-arm-gcc/bin/../lib/gcc/arm-none-eabi/7.3.1/thumb/v7e-m/fpv4-sp/hard/crti.o
                0x0810090c                _fini
 .fini          0x08100910        0x8 a:/touchgfx/4.18.1/env/mingw/msys/1.0/gnu-arm-gcc/bin/../lib/gcc/arm-none-eabi/7.3.1/thumb/v7e-m/fpv4-sp/hard/crtn.o
                0x08100918                . = ALIGN (0x4)
                0x08100918                _etext = .

.vfp11_veneer   0x08100918        0x0
 .vfp11_veneer  0x08100918        0x0 linker stubs

.v4_bx          0x08100918        0x0
 .v4_bx         0x08100918        0x0 linker stubs

.iplt           0x08100918        0x0
 .iplt          0x08100918        0x0 a:/touchgfx/4.18.1/env/mingw/msys/1.0/gnu-arm-gcc/bin/../lib/gcc/arm-none-eabi/7.3.1/thumb/v7e-m/fpv4-sp/hard/crtbegin.o

.rodata         0x08100918       0x14
                0x08100918                . = ALIGN (0x4)
 *(.rodata)
 *(.rodata*)
 .rodata.D1CorePrescTable
                0x08100918       0x10 CM4/TouchGFX/build/STM32H745I_DISCO/Common/Src/system_stm32h7xx_dualcore_boot_cm4_cm7.o
                0x08100918                D1CorePrescTable
 .rodata._global_impure_ptr
                0x08100928        0x4 a:/touchgfx/4.18.1/env/mingw/msys/1.0/gnu-arm-gcc/bin/../lib/gcc/arm-none-eabi/7.3.1/../../../../arm-none-eabi/lib/thumb/v7e-m/fpv4-sp/hard\libc.a(lib_a-impure.o)
                0x08100928                _global_impure_ptr
                0x0810092c                . = ALIGN (0x4)

.rel.dyn        0x0810092c        0x0
 .rel.iplt      0x0810092c        0x0 a:/touchgfx/4.18.1/env/mingw/msys/1.0/gnu-arm-gcc/bin/../lib/gcc/arm-none-eabi/7.3.1/thumb/v7e-m/fpv4-sp/hard/crtbegin.o

.ARM.extab
 *(.ARM.extab* .gnu.linkonce.armextab.*)

.ARM            0x0810092c        0x0
                0x0810092c                __exidx_start = .
 *(.ARM.exidx*)
                0x0810092c                __exidx_end = .

.preinit_array  0x0810092c        0x0
                0x0810092c                PROVIDE (__preinit_array_start = .)
 *(.preinit_array*)
                0x0810092c                PROVIDE (__preinit_array_end = .)

.init_array     0x0810092c        0x8
                0x0810092c                PROVIDE (__init_array_start = .)
 *(SORT_BY_NAME(.init_array.*))
 .init_array.00000
                0x0810092c        0x4 a:/touchgfx/4.18.1/env/mingw/msys/1.0/gnu-arm-gcc/bin/../lib/gcc/arm-none-eabi/7.3.1/../../../../arm-none-eabi/lib/thumb/v7e-m/fpv4-sp/hard\libc.a(lib_a-__call_atexit.o)
 *(.init_array*)
 .init_array    0x08100930        0x4 a:/touchgfx/4.18.1/env/mingw/msys/1.0/gnu-arm-gcc/bin/../lib/gcc/arm-none-eabi/7.3.1/thumb/v7e-m/fpv4-sp/hard/crtbegin.o
                0x08100934                PROVIDE (__init_array_end = .)

.fini_array     0x08100934        0x4
                0x08100934                PROVIDE (__fini_array_start = .)
 *(SORT_BY_NAME(.fini_array.*))
 *(.fini_array*)
 .fini_array    0x08100934        0x4 a:/touchgfx/4.18.1/env/mingw/msys/1.0/gnu-arm-gcc/bin/../lib/gcc/arm-none-eabi/7.3.1/thumb/v7e-m/fpv4-sp/hard/crtbegin.o
                0x08100938                PROVIDE (__fini_array_end = .)
                0x08100938                _sidata = LOADADDR (.data)

.data           0x10000000      0x43c load address 0x08100938
                0x10000000                . = ALIGN (0x4)
                0x10000000                _sdata = .
 *(.data)
 *(.data*)
 .data.uwTickFreq
                0x10000000        0x1 CM4/TouchGFX/build/STM32H745I_DISCO/Drivers/STM32H7xx_HAL_Driver/Src/stm32h7xx_hal.o
                0x10000000                uwTickFreq
 *fill*         0x10000001        0x3 
 .data.uwTickPrio
                0x10000004        0x4 CM4/TouchGFX/build/STM32H745I_DISCO/Drivers/STM32H7xx_HAL_Driver/Src/stm32h7xx_hal.o
                0x10000004                uwTickPrio
 .data.SystemCoreClock
                0x10000008        0x4 CM4/TouchGFX/build/STM32H745I_DISCO/Common/Src/system_stm32h7xx_dualcore_boot_cm4_cm7.o
                0x10000008                SystemCoreClock
 .data.SystemD2Clock
                0x1000000c        0x4 CM4/TouchGFX/build/STM32H745I_DISCO/Common/Src/system_stm32h7xx_dualcore_boot_cm4_cm7.o
                0x1000000c                SystemD2Clock
 .data.impure_data
                0x10000010      0x428 a:/touchgfx/4.18.1/env/mingw/msys/1.0/gnu-arm-gcc/bin/../lib/gcc/arm-none-eabi/7.3.1/../../../../arm-none-eabi/lib/thumb/v7e-m/fpv4-sp/hard\libc.a(lib_a-impure.o)
 .data.__atexit_recursive_mutex
                0x10000438        0x4 a:/touchgfx/4.18.1/env/mingw/msys/1.0/gnu-arm-gcc/bin/../lib/gcc/arm-none-eabi/7.3.1/../../../../arm-none-eabi/lib/thumb/v7e-m/fpv4-sp/hard\libc.a(lib_a-__call_atexit.o)
                0x10000438                __atexit_recursive_mutex
 *(.RamFunc)
 *(.RamFunc*)
                0x1000043c                . = ALIGN (0x4)
                0x1000043c                _edata = .

.igot.plt       0x1000043c        0x0 load address 0x08100d74
 .igot.plt      0x1000043c        0x0 a:/touchgfx/4.18.1/env/mingw/msys/1.0/gnu-arm-gcc/bin/../lib/gcc/arm-none-eabi/7.3.1/thumb/v7e-m/fpv4-sp/hard/crtbegin.o
                0x1000043c                . = ALIGN (0x4)

.bss            0x1000043c       0x44 load address 0x08100d74
                0x1000043c                _sbss = .
                0x1000043c                __bss_start__ = _sbss
 *(.bss)
 .bss           0x1000043c       0x1c a:/touchgfx/4.18.1/env/mingw/msys/1.0/gnu-arm-gcc/bin/../lib/gcc/arm-none-eabi/7.3.1/thumb/v7e-m/fpv4-sp/hard/crtbegin.o
 *(.bss*)
 *(COMMON)
 COMMON         0x10000458        0x4 CM4/TouchGFX/build/STM32H745I_DISCO/Drivers/STM32H7xx_HAL_Driver/Src/stm32h7xx_hal.o
                0x10000458                uwTick
 COMMON         0x1000045c       0x21 a:/touchgfx/4.18.1/env/mingw/msys/1.0/gnu-arm-gcc/bin/../lib/gcc/arm-none-eabi/7.3.1/../../../../arm-none-eabi/lib/thumb/v7e-m/fpv4-sp/hard\libc.a(lib_a-lock.o)
                0x1000045c                __lock___atexit_recursive_mutex
                0x10000460                __lock___arc4random_mutex
                0x10000464                __lock___env_recursive_mutex
                0x10000468                __lock___sinit_recursive_mutex
                0x1000046c                __lock___malloc_recursive_mutex
                0x10000470                __lock___at_quick_exit_mutex
                0x10000474                __lock___dd_hash_mutex
                0x10000478                __lock___tz_mutex
                0x1000047c                __lock___sfp_recursive_mutex
                0x10000480                . = ALIGN (0x4)
 *fill*         0x1000047d        0x3 
                0x10000480                _ebss = .
                0x10000480                __bss_end__ = _ebss

._user_heap_stack
                0x10000480      0x600 load address 0x08100d74
                0x10000480                . = ALIGN (0x8)
                [!provide]                PROVIDE (end = .)
                [!provide]                PROVIDE (_end = .)
                0x10000680                . = (. + _Min_Heap_Size)
 *fill*         0x10000480      0x200 
                0x10000a80                . = (. + _Min_Stack_Size)
 *fill*         0x10000680      0x400 
                0x10000a80                . = ALIGN (0x8)

/DISCARD/
 libc.a(*)
 libm.a(*)
 libgcc.a(*)

.ARM.attributes
                0x00000000       0x30
 *(.ARM.attributes)
 .ARM.attributes
                0x00000000       0x22 a:/touchgfx/4.18.1/env/mingw/msys/1.0/gnu-arm-gcc/bin/../lib/gcc/arm-none-eabi/7.3.1/thumb/v7e-m/fpv4-sp/hard/crti.o
 .ARM.attributes
                0x00000022       0x34 a:/touchgfx/4.18.1/env/mingw/msys/1.0/gnu-arm-gcc/bin/../lib/gcc/arm-none-eabi/7.3.1/thumb/v7e-m/fpv4-sp/hard/crtbegin.o
 .ARM.attributes
                0x00000056       0x39 CM4/TouchGFX/build/STM32H745I_DISCO/Drivers/STM32H7xx_HAL_Driver/Src/stm32h7xx_hal.o
 .ARM.attributes
                0x0000008f       0x39 CM4/TouchGFX/build/STM32H745I_DISCO/Drivers/STM32H7xx_HAL_Driver/Src/stm32h7xx_hal_cortex.o
 .ARM.attributes
                0x000000c8       0x39 CM4/TouchGFX/build/STM32H745I_DISCO/Drivers/STM32H7xx_HAL_Driver/Src/stm32h7xx_hal_hsem.o
 .ARM.attributes
                0x00000101       0x39 CM4/TouchGFX/build/STM32H745I_DISCO/Drivers/STM32H7xx_HAL_Driver/Src/stm32h7xx_hal_pwr_ex.o
 .ARM.attributes
                0x0000013a       0x39 CM4/TouchGFX/build/STM32H745I_DISCO/Drivers/STM32H7xx_HAL_Driver/Src/stm32h7xx_hal_rcc.o
 .ARM.attributes
                0x00000173       0x39 CM4/TouchGFX/build/STM32H745I_DISCO/CM4/Core/Src/main.o
 .ARM.attributes
                0x000001ac       0x39 CM4/TouchGFX/build/STM32H745I_DISCO/CM4/Core/Src/stm32h7xx_it.o
 .ARM.attributes
                0x000001e5       0x39 CM4/TouchGFX/build/STM32H745I_DISCO/CM4/Core/Src/stm32h7xx_hal_msp.o
 .ARM.attributes
                0x0000021e       0x39 CM4/TouchGFX/build/STM32H745I_DISCO/Common/Src/system_stm32h7xx_dualcore_boot_cm4_cm7.o
 .ARM.attributes
                0x00000257       0x21 CM4/TouchGFX/build/STM32H745I_DISCO/gcc/startup_stm32h745xihx_cm4.o
 .ARM.attributes
                0x00000278       0x34 a:/touchgfx/4.18.1/env/mingw/msys/1.0/gnu-arm-gcc/bin/../lib/gcc/arm-none-eabi/7.3.1/../../../../arm-none-eabi/lib/thumb/v7e-m/fpv4-sp/hard\libc.a(lib_a-impure.o)
 .ARM.attributes
                0x000002ac       0x34 a:/touchgfx/4.18.1/env/mingw/msys/1.0/gnu-arm-gcc/bin/../lib/gcc/arm-none-eabi/7.3.1/../../../../arm-none-eabi/lib/thumb/v7e-m/fpv4-sp/hard\libc.a(lib_a-init.o)
 .ARM.attributes
                0x000002e0       0x34 a:/touchgfx/4.18.1/env/mingw/msys/1.0/gnu-arm-gcc/bin/../lib/gcc/arm-none-eabi/7.3.1/../../../../arm-none-eabi/lib/thumb/v7e-m/fpv4-sp/hard\libc.a(lib_a-__call_atexit.o)
 .ARM.attributes
                0x00000314       0x34 a:/touchgfx/4.18.1/env/mingw/msys/1.0/gnu-arm-gcc/bin/../lib/gcc/arm-none-eabi/7.3.1/../../../../arm-none-eabi/lib/thumb/v7e-m/fpv4-sp/hard\libc.a(lib_a-atexit.o)
 .ARM.attributes
                0x00000348       0x34 a:/touchgfx/4.18.1/env/mingw/msys/1.0/gnu-arm-gcc/bin/../lib/gcc/arm-none-eabi/7.3.1/../../../../arm-none-eabi/lib/thumb/v7e-m/fpv4-sp/hard\libc.a(lib_a-fini.o)
 .ARM.attributes
                0x0000037c       0x34 a:/touchgfx/4.18.1/env/mingw/msys/1.0/gnu-arm-gcc/bin/../lib/gcc/arm-none-eabi/7.3.1/../../../../arm-none-eabi/lib/thumb/v7e-m/fpv4-sp/hard\libc.a(lib_a-lock.o)
 .ARM.attributes
                0x000003b0       0x34 a:/touchgfx/4.18.1/env/mingw/msys/1.0/gnu-arm-gcc/bin/../lib/gcc/arm-none-eabi/7.3.1/../../../../arm-none-eabi/lib/thumb/v7e-m/fpv4-sp/hard\libc.a(lib_a-__atexit.o)
 .ARM.attributes
                0x000003e4       0x22 a:/touchgfx/4.18.1/env/mingw/msys/1.0/gnu-arm-gcc/bin/../lib/gcc/arm-none-eabi/7.3.1/thumb/v7e-m/fpv4-sp/hard/crtn.o
OUTPUT(CM4/TouchGFX/build/bin/target.elf elf32-littlearm)

.debug_info     0x00000000     0xba6a
 .debug_info    0x00000000     0x2125 CM4/TouchGFX/build/STM32H745I_DISCO/Drivers/STM32H7xx_HAL_Driver/Src/stm32h7xx_hal.o
 .debug_info    0x00002125     0x1a28 CM4/TouchGFX/build/STM32H745I_DISCO/Drivers/STM32H7xx_HAL_Driver/Src/stm32h7xx_hal_cortex.o
 .debug_info    0x00003b4d      0xdce CM4/TouchGFX/build/STM32H745I_DISCO/Drivers/STM32H7xx_HAL_Driver/Src/stm32h7xx_hal_hsem.o
 .debug_info    0x0000491b     0x1adf CM4/TouchGFX/build/STM32H745I_DISCO/Drivers/STM32H7xx_HAL_Driver/Src/stm32h7xx_hal_pwr_ex.o
 .debug_info    0x000063fa     0x1a90 CM4/TouchGFX/build/STM32H745I_DISCO/Drivers/STM32H7xx_HAL_Driver/Src/stm32h7xx_hal_rcc.o
 .debug_info    0x00007e8a     0x1186 CM4/TouchGFX/build/STM32H745I_DISCO/CM4/Core/Src/main.o
 .debug_info    0x00009010      0xb3e CM4/TouchGFX/build/STM32H745I_DISCO/CM4/Core/Src/stm32h7xx_it.o
 .debug_info    0x00009b4e      0xe4b CM4/TouchGFX/build/STM32H745I_DISCO/CM4/Core/Src/stm32h7xx_hal_msp.o
 .debug_info    0x0000a999     0x10af CM4/TouchGFX/build/STM32H745I_DISCO/Common/Src/system_stm32h7xx_dualcore_boot_cm4_cm7.o
 .debug_info    0x0000ba48       0x22 CM4/TouchGFX/build/STM32H745I_DISCO/gcc/startup_stm32h745xihx_cm4.o

.debug_abbrev   0x00000000     0x1978
 .debug_abbrev  0x00000000      0x37a CM4/TouchGFX/build/STM32H745I_DISCO/Drivers/STM32H7xx_HAL_Driver/Src/stm32h7xx_hal.o
 .debug_abbrev  0x0000037a      0x3de CM4/TouchGFX/build/STM32H745I_DISCO/Drivers/STM32H7xx_HAL_Driver/Src/stm32h7xx_hal_cortex.o
 .debug_abbrev  0x00000758      0x2c6 CM4/TouchGFX/build/STM32H745I_DISCO/Drivers/STM32H7xx_HAL_Driver/Src/stm32h7xx_hal_hsem.o
 .debug_abbrev  0x00000a1e      0x376 CM4/TouchGFX/build/STM32H745I_DISCO/Drivers/STM32H7xx_HAL_Driver/Src/stm32h7xx_hal_pwr_ex.o
 .debug_abbrev  0x00000d94      0x332 CM4/TouchGFX/build/STM32H745I_DISCO/Drivers/STM32H7xx_HAL_Driver/Src/stm32h7xx_hal_rcc.o
 .debug_abbrev  0x000010c6      0x280 CM4/TouchGFX/build/STM32H745I_DISCO/CM4/Core/Src/main.o
 .debug_abbrev  0x00001346      0x217 CM4/TouchGFX/build/STM32H745I_DISCO/CM4/Core/Src/stm32h7xx_it.o
 .debug_abbrev  0x0000155d      0x1e0 CM4/TouchGFX/build/STM32H745I_DISCO/CM4/Core/Src/stm32h7xx_hal_msp.o
 .debug_abbrev  0x0000173d      0x229 CM4/TouchGFX/build/STM32H745I_DISCO/Common/Src/system_stm32h7xx_dualcore_boot_cm4_cm7.o
 .debug_abbrev  0x00001966       0x12 CM4/TouchGFX/build/STM32H745I_DISCO/gcc/startup_stm32h745xihx_cm4.o

.debug_loc      0x00000000     0x15af
 .debug_loc     0x00000000      0x4b8 CM4/TouchGFX/build/STM32H745I_DISCO/Drivers/STM32H7xx_HAL_Driver/Src/stm32h7xx_hal.o
 .debug_loc     0x000004b8      0x487 CM4/TouchGFX/build/STM32H745I_DISCO/Drivers/STM32H7xx_HAL_Driver/Src/stm32h7xx_hal_cortex.o
 .debug_loc     0x0000093f      0x149 CM4/TouchGFX/build/STM32H745I_DISCO/Drivers/STM32H7xx_HAL_Driver/Src/stm32h7xx_hal_hsem.o
 .debug_loc     0x00000a88      0x43f CM4/TouchGFX/build/STM32H745I_DISCO/Drivers/STM32H7xx_HAL_Driver/Src/stm32h7xx_hal_pwr_ex.o
 .debug_loc     0x00000ec7      0x552 CM4/TouchGFX/build/STM32H745I_DISCO/Drivers/STM32H7xx_HAL_Driver/Src/stm32h7xx_hal_rcc.o
 .debug_loc     0x00001419      0x196 CM4/TouchGFX/build/STM32H745I_DISCO/Common/Src/system_stm32h7xx_dualcore_boot_cm4_cm7.o

.debug_aranges  0x00000000      0x5c8
 .debug_aranges
                0x00000000      0x1f8 CM4/TouchGFX/build/STM32H745I_DISCO/Drivers/STM32H7xx_HAL_Driver/Src/stm32h7xx_hal.o
 .debug_aranges
                0x000001f8       0xb0 CM4/TouchGFX/build/STM32H745I_DISCO/Drivers/STM32H7xx_HAL_Driver/Src/stm32h7xx_hal_cortex.o
 .debug_aranges
                0x000002a8       0x70 CM4/TouchGFX/build/STM32H745I_DISCO/Drivers/STM32H7xx_HAL_Driver/Src/stm32h7xx_hal_hsem.o
 .debug_aranges
                0x00000318      0x140 CM4/TouchGFX/build/STM32H745I_DISCO/Drivers/STM32H7xx_HAL_Driver/Src/stm32h7xx_hal_pwr_ex.o
 .debug_aranges
                0x00000458       0x88 CM4/TouchGFX/build/STM32H745I_DISCO/Drivers/STM32H7xx_HAL_Driver/Src/stm32h7xx_hal_rcc.o
 .debug_aranges
                0x000004e0       0x28 CM4/TouchGFX/build/STM32H745I_DISCO/CM4/Core/Src/main.o
 .debug_aranges
                0x00000508       0x50 CM4/TouchGFX/build/STM32H745I_DISCO/CM4/Core/Src/stm32h7xx_it.o
 .debug_aranges
                0x00000558       0x20 CM4/TouchGFX/build/STM32H745I_DISCO/CM4/Core/Src/stm32h7xx_hal_msp.o
 .debug_aranges
                0x00000578       0x28 CM4/TouchGFX/build/STM32H745I_DISCO/Common/Src/system_stm32h7xx_dualcore_boot_cm4_cm7.o
 .debug_aranges
                0x000005a0       0x28 CM4/TouchGFX/build/STM32H745I_DISCO/gcc/startup_stm32h745xihx_cm4.o

.debug_ranges   0x00000000      0x690
 .debug_ranges  0x00000000      0x200 CM4/TouchGFX/build/STM32H745I_DISCO/Drivers/STM32H7xx_HAL_Driver/Src/stm32h7xx_hal.o
 .debug_ranges  0x00000200      0x140 CM4/TouchGFX/build/STM32H745I_DISCO/Drivers/STM32H7xx_HAL_Driver/Src/stm32h7xx_hal_cortex.o
 .debug_ranges  0x00000340       0x60 CM4/TouchGFX/build/STM32H745I_DISCO/Drivers/STM32H7xx_HAL_Driver/Src/stm32h7xx_hal_hsem.o
 .debug_ranges  0x000003a0      0x130 CM4/TouchGFX/build/STM32H745I_DISCO/Drivers/STM32H7xx_HAL_Driver/Src/stm32h7xx_hal_pwr_ex.o
 .debug_ranges  0x000004d0       0xe8 CM4/TouchGFX/build/STM32H745I_DISCO/Drivers/STM32H7xx_HAL_Driver/Src/stm32h7xx_hal_rcc.o
 .debug_ranges  0x000005b8       0x38 CM4/TouchGFX/build/STM32H745I_DISCO/CM4/Core/Src/main.o
 .debug_ranges  0x000005f0       0x40 CM4/TouchGFX/build/STM32H745I_DISCO/CM4/Core/Src/stm32h7xx_it.o
 .debug_ranges  0x00000630       0x28 CM4/TouchGFX/build/STM32H745I_DISCO/CM4/Core/Src/stm32h7xx_hal_msp.o
 .debug_ranges  0x00000658       0x18 CM4/TouchGFX/build/STM32H745I_DISCO/Common/Src/system_stm32h7xx_dualcore_boot_cm4_cm7.o
 .debug_ranges  0x00000670       0x20 CM4/TouchGFX/build/STM32H745I_DISCO/gcc/startup_stm32h745xihx_cm4.o

.debug_line     0x00000000     0x2bbf
 .debug_line    0x00000000      0x7ac CM4/TouchGFX/build/STM32H745I_DISCO/Drivers/STM32H7xx_HAL_Driver/Src/stm32h7xx_hal.o
 .debug_line    0x000007ac      0x576 CM4/TouchGFX/build/STM32H745I_DISCO/Drivers/STM32H7xx_HAL_Driver/Src/stm32h7xx_hal_cortex.o
 .debug_line    0x00000d22      0x39a CM4/TouchGFX/build/STM32H745I_DISCO/Drivers/STM32H7xx_HAL_Driver/Src/stm32h7xx_hal_hsem.o
 .debug_line    0x000010bc      0x716 CM4/TouchGFX/build/STM32H745I_DISCO/Drivers/STM32H7xx_HAL_Driver/Src/stm32h7xx_hal_pwr_ex.o
 .debug_line    0x000017d2      0x763 CM4/TouchGFX/build/STM32H745I_DISCO/Drivers/STM32H7xx_HAL_Driver/Src/stm32h7xx_hal_rcc.o
 .debug_line    0x00001f35      0x313 CM4/TouchGFX/build/STM32H745I_DISCO/CM4/Core/Src/main.o
 .debug_line    0x00002248      0x308 CM4/TouchGFX/build/STM32H745I_DISCO/CM4/Core/Src/stm32h7xx_it.o
 .debug_line    0x00002550      0x2c0 CM4/TouchGFX/build/STM32H745I_DISCO/CM4/Core/Src/stm32h7xx_hal_msp.o
 .debug_line    0x00002810      0x32f CM4/TouchGFX/build/STM32H745I_DISCO/Common/Src/system_stm32h7xx_dualcore_boot_cm4_cm7.o
 .debug_line    0x00002b3f       0x80 CM4/TouchGFX/build/STM32H745I_DISCO/gcc/startup_stm32h745xihx_cm4.o

.debug_str      0x00000000     0x2ed6
 .debug_str     0x00000000     0x1be8 CM4/TouchGFX/build/STM32H745I_DISCO/Drivers/STM32H7xx_HAL_Driver/Src/stm32h7xx_hal.o
                               0x1cf2 (size before relaxing)
 .debug_str     0x00001be8      0x4c5 CM4/TouchGFX/build/STM32H745I_DISCO/Drivers/STM32H7xx_HAL_Driver/Src/stm32h7xx_hal_cortex.o
                               0x1673 (size before relaxing)
 .debug_str     0x000020ad      0x1a6 CM4/TouchGFX/build/STM32H745I_DISCO/Drivers/STM32H7xx_HAL_Driver/Src/stm32h7xx_hal_hsem.o
                                0xa62 (size before relaxing)
 .debug_str     0x00002253      0x5de CM4/TouchGFX/build/STM32H745I_DISCO/Drivers/STM32H7xx_HAL_Driver/Src/stm32h7xx_hal_pwr_ex.o
                               0x111d (size before relaxing)
 .debug_str     0x00002831      0x525 CM4/TouchGFX/build/STM32H745I_DISCO/Drivers/STM32H7xx_HAL_Driver/Src/stm32h7xx_hal_rcc.o
                               0x10bc (size before relaxing)
 .debug_str     0x00002d56       0x30 CM4/TouchGFX/build/STM32H745I_DISCO/CM4/Core/Src/main.o
                                0xbdf (size before relaxing)
 .debug_str     0x00002d86       0xac CM4/TouchGFX/build/STM32H745I_DISCO/CM4/Core/Src/stm32h7xx_it.o
                                0x932 (size before relaxing)
 .debug_str     0x00002e32       0x21 CM4/TouchGFX/build/STM32H745I_DISCO/CM4/Core/Src/stm32h7xx_hal_msp.o
                                0xad1 (size before relaxing)
 .debug_str     0x00002e53       0x55 CM4/TouchGFX/build/STM32H745I_DISCO/Common/Src/system_stm32h7xx_dualcore_boot_cm4_cm7.o
                                0xba1 (size before relaxing)
 .debug_str     0x00002ea8       0x2e CM4/TouchGFX/build/STM32H745I_DISCO/gcc/startup_stm32h745xihx_cm4.o
                                 0x4c (size before relaxing)

.comment        0x00000000       0x7f
 .comment       0x00000000       0x7f CM4/TouchGFX/build/STM32H745I_DISCO/Drivers/STM32H7xx_HAL_Driver/Src/stm32h7xx_hal.o
                                 0x80 (size before relaxing)
 .comment       0x0000007f       0x80 CM4/TouchGFX/build/STM32H745I_DISCO/Drivers/STM32H7xx_HAL_Driver/Src/stm32h7xx_hal_cortex.o
 .comment       0x0000007f       0x80 CM4/TouchGFX/build/STM32H745I_DISCO/Drivers/STM32H7xx_HAL_Driver/Src/stm32h7xx_hal_hsem.o
 .comment       0x0000007f       0x80 CM4/TouchGFX/build/STM32H745I_DISCO/Drivers/STM32H7xx_HAL_Driver/Src/stm32h7xx_hal_pwr_ex.o
 .comment       0x0000007f       0x80 CM4/TouchGFX/build/STM32H745I_DISCO/Drivers/STM32H7xx_HAL_Driver/Src/stm32h7xx_hal_rcc.o
 .comment       0x0000007f       0x80 CM4/TouchGFX/build/STM32H745I_DISCO/CM4/Core/Src/main.o
 .comment       0x0000007f       0x80 CM4/TouchGFX/build/STM32H745I_DISCO/CM4/Core/Src/stm32h7xx_it.o
 .comment       0x0000007f       0x80 CM4/TouchGFX/build/STM32H745I_DISCO/CM4/Core/Src/stm32h7xx_hal_msp.o
 .comment       0x0000007f       0x80 CM4/TouchGFX/build/STM32H745I_DISCO/Common/Src/system_stm32h7xx_dualcore_boot_cm4_cm7.o

.debug_frame    0x00000000      0xe2c
 .debug_frame   0x00000000      0x454 CM4/TouchGFX/build/STM32H745I_DISCO/Drivers/STM32H7xx_HAL_Driver/Src/stm32h7xx_hal.o
 .debug_frame   0x00000454      0x168 CM4/TouchGFX/build/STM32H745I_DISCO/Drivers/STM32H7xx_HAL_Driver/Src/stm32h7xx_hal_cortex.o
 .debug_frame   0x000005bc       0xc8 CM4/TouchGFX/build/STM32H745I_DISCO/Drivers/STM32H7xx_HAL_Driver/Src/stm32h7xx_hal_hsem.o
 .debug_frame   0x00000684      0x340 CM4/TouchGFX/build/STM32H745I_DISCO/Drivers/STM32H7xx_HAL_Driver/Src/stm32h7xx_hal_pwr_ex.o
 .debug_frame   0x000009c4      0x170 CM4/TouchGFX/build/STM32H745I_DISCO/Drivers/STM32H7xx_HAL_Driver/Src/stm32h7xx_hal_rcc.o
 .debug_frame   0x00000b34       0x38 CM4/TouchGFX/build/STM32H745I_DISCO/CM4/Core/Src/main.o
 .debug_frame   0x00000b6c       0xa0 CM4/TouchGFX/build/STM32H745I_DISCO/CM4/Core/Src/stm32h7xx_it.o
 .debug_frame   0x00000c0c       0x28 CM4/TouchGFX/build/STM32H745I_DISCO/CM4/Core/Src/stm32h7xx_hal_msp.o
 .debug_frame   0x00000c34       0x38 CM4/TouchGFX/build/STM32H745I_DISCO/Common/Src/system_stm32h7xx_dualcore_boot_cm4_cm7.o
 .debug_frame   0x00000c6c       0x2c a:/touchgfx/4.18.1/env/mingw/msys/1.0/gnu-arm-gcc/bin/../lib/gcc/arm-none-eabi/7.3.1/../../../../arm-none-eabi/lib/thumb/v7e-m/fpv4-sp/hard\libc.a(lib_a-init.o)
 .debug_frame   0x00000c98       0x5c a:/touchgfx/4.18.1/env/mingw/msys/1.0/gnu-arm-gcc/bin/../lib/gcc/arm-none-eabi/7.3.1/../../../../arm-none-eabi/lib/thumb/v7e-m/fpv4-sp/hard\libc.a(lib_a-__call_atexit.o)
 .debug_frame   0x00000cf4       0x20 a:/touchgfx/4.18.1/env/mingw/msys/1.0/gnu-arm-gcc/bin/../lib/gcc/arm-none-eabi/7.3.1/../../../../arm-none-eabi/lib/thumb/v7e-m/fpv4-sp/hard\libc.a(lib_a-atexit.o)
 .debug_frame   0x00000d14       0x34 a:/touchgfx/4.18.1/env/mingw/msys/1.0/gnu-arm-gcc/bin/../lib/gcc/arm-none-eabi/7.3.1/../../../../arm-none-eabi/lib/thumb/v7e-m/fpv4-sp/hard\libc.a(lib_a-fini.o)
 .debug_frame   0x00000d48       0xb0 a:/touchgfx/4.18.1/env/mingw/msys/1.0/gnu-arm-gcc/bin/../lib/gcc/arm-none-eabi/7.3.1/../../../../arm-none-eabi/lib/thumb/v7e-m/fpv4-sp/hard\libc.a(lib_a-lock.o)
 .debug_frame   0x00000df8       0x34 a:/touchgfx/4.18.1/env/mingw/msys/1.0/gnu-arm-gcc/bin/../lib/gcc/arm-none-eabi/7.3.1/../../../../arm-none-eabi/lib/thumb/v7e-m/fpv4-sp/hard\libc.a(lib_a-__atexit.o)
